ccollections
defaultdict
p0
(g0
tp1
Rp2
I1
g0
(tRp3
I2
I22
sI3
I14
sI4
I1
sI5
I9
sI6
I34
sI7
I9
sI8
I2
sI9
I1
sI10
I24
sI11
I22
sI12
I3
sI13
I4
sI14
I6
sI15
I1
sI16
I35
sI17
I26
sI18
I5
sI19
I8
sI21
I22
sI22
I6
sI23
I4
sI24
I2
sI25
I29
sI26
I2
sI27
I1
sI28
I5
sI29
I18
sI30
I4
sI31
I4
sI32
I57
sI34
I54
sI35
I2
sI36
I35
sI39
I33
sI40
I2
sI41
I5
sI43
I4
sI44
I2
sI45
I9
sI46
I3
sI47
I67
sI48
I10
sI49
I1
sI50
I73
sI52
I17
sI53
I1
sI54
I1
sI55
I3
sI57
I2
sI58
I13
sI60
I4
sI61
I3
sI62
I20
sI63
I2
sI68
I1
sI69
I12
sI70
I11
sI73
I4
sI74
I1
sI76
I4
sI77
I1
sI78
I4
sI79
I3
sI81
I3
sI82
I3
sI85
I8
sI86
I4
sI88
I1
sI89
I3
sI92
I4
sI93
I1
sI94
I7
sI95
I16
sI99
I2
sI100
I5
ssI2
g0
(tRp4
I1
I22
sI3
I3
sI5
I6
sI6
I9
sI7
I5
sI8
I3
sI9
I2
sI10
I12
sI11
I11
sI13
I3
sI16
I10
sI17
I7
sI18
I2
sI19
I5
sI20
I2
sI21
I7
sI22
I7
sI23
I2
sI24
I3
sI25
I6
sI27
I2
sI28
I2
sI29
I6
sI30
I2
sI31
I4
sI32
I17
sI34
I17
sI35
I1
sI36
I10
sI39
I13
sI43
I2
sI45
I5
sI46
I2
sI47
I22
sI48
I2
sI49
I1
sI50
I16
sI52
I4
sI54
I2
sI55
I2
sI57
I1
sI60
I2
sI61
I3
sI62
I11
sI65
I1
sI68
I1
sI69
I1
sI70
I2
sI71
I1
sI73
I1
sI74
I4
sI76
I1
sI77
I1
sI78
I1
sI79
I3
sI82
I1
sI85
I4
sI86
I3
sI89
I5
sI92
I1
sI94
I3
sI95
I9
sI97
I1
sI99
I1
sI100
I1
ssI3
g0
(tRp5
I1
I14
sI2
I3
sI5
I3
sI6
I3
sI7
I5
sI8
I1
sI9
I1
sI10
I4
sI11
I5
sI14
I2
sI16
I6
sI17
I5
sI18
I2
sI19
I2
sI21
I2
sI22
I1
sI23
I1
sI25
I5
sI26
I1
sI31
I2
sI32
I6
sI34
I2
sI36
I4
sI39
I4
sI41
I3
sI45
I2
sI47
I3
sI48
I1
sI50
I4
sI52
I4
sI58
I2
sI60
I1
sI61
I1
sI62
I7
sI63
I1
sI66
I1
sI69
I3
sI70
I1
sI74
I2
sI76
I3
sI79
I1
sI81
I1
sI82
I1
sI85
I2
sI86
I1
sI88
I1
sI92
I1
sI95
I3
sI100
I1
ssI4
g0
(tRp6
I32
I1
sI1
I1
sI45
I1
sI50
I1
sI29
I1
sI95
I1
ssI5
g0
(tRp7
I1
I9
sI2
I6
sI3
I3
sI6
I8
sI7
I4
sI8
I2
sI9
I2
sI10
I6
sI11
I7
sI12
I1
sI16
I5
sI17
I5
sI19
I3
sI20
I1
sI21
I3
sI22
I1
sI23
I1
sI24
I2
sI25
I3
sI26
I2
sI27
I1
sI28
I1
sI31
I2
sI32
I8
sI34
I6
sI36
I8
sI39
I6
sI41
I2
sI45
I1
sI46
I1
sI47
I6
sI48
I2
sI50
I6
sI52
I3
sI54
I1
sI58
I1
sI60
I2
sI61
I2
sI62
I10
sI63
I1
sI65
I1
sI70
I2
sI73
I1
sI74
I3
sI76
I1
sI79
I3
sI81
I1
sI82
I2
sI86
I3
sI89
I1
sI92
I2
sI94
I2
sI95
I5
sI100
I2
ssI6
g0
(tRp8
I1
I34
sI2
I9
sI3
I3
sI5
I8
sI7
I6
sI8
I2
sI9
I3
sI10
I9
sI11
I13
sI12
I1
sI14
I4
sI16
I27
sI17
I9
sI18
I3
sI19
I4
sI20
I2
sI21
I17
sI22
I8
sI23
I6
sI24
I3
sI25
I25
sI26
I1
sI27
I2
sI28
I4
sI29
I9
sI30
I3
sI31
I7
sI32
I40
sI34
I22
sI35
I1
sI36
I22
sI39
I11
sI40
I2
sI41
I3
sI43
I3
sI44
I1
sI45
I5
sI46
I1
sI47
I39
sI48
I1
sI50
I35
sI52
I5
sI55
I1
sI58
I5
sI60
I2
sI61
I3
sI62
I11
sI63
I2
sI65
I2
sI69
I5
sI70
I10
sI71
I1
sI72
I1
sI73
I1
sI74
I2
sI76
I1
sI78
I1
sI79
I4
sI81
I3
sI82
I2
sI85
I5
sI86
I6
sI88
I1
sI89
I5
sI94
I3
sI95
I14
sI97
I1
sI99
I1
sI100
I6
ssI7
g0
(tRp9
I1
I9
sI2
I5
sI3
I5
sI5
I4
sI6
I6
sI8
I2
sI9
I1
sI10
I6
sI11
I8
sI12
I2
sI16
I3
sI17
I7
sI18
I1
sI19
I1
sI21
I6
sI22
I3
sI23
I1
sI25
I6
sI26
I1
sI27
I1
sI28
I3
sI29
I1
sI30
I2
sI31
I5
sI32
I10
sI34
I6
sI36
I3
sI39
I6
sI41
I1
sI43
I1
sI45
I3
sI46
I1
sI47
I6
sI48
I3
sI50
I6
sI52
I3
sI58
I4
sI60
I1
sI61
I1
sI62
I9
sI69
I1
sI73
I2
sI74
I1
sI79
I1
sI86
I1
sI89
I1
sI92
I1
sI94
I1
sI95
I4
ssI8
g0
(tRp10
I1
I2
sI2
I3
sI3
I1
sI5
I2
sI6
I2
sI7
I2
sI9
I1
sI11
I2
sI14
I1
sI16
I2
sI20
I1
sI21
I2
sI23
I1
sI24
I1
sI25
I2
sI34
I2
sI36
I1
sI39
I1
sI45
I1
sI47
I2
sI48
I1
sI50
I1
sI52
I1
sI60
I1
sI62
I1
sI65
I1
sI70
I1
sI74
I1
sI79
I2
sI86
I1
sI89
I2
sI100
I1
ssI9
g0
(tRp11
I1
I1
sI2
I2
sI3
I1
sI5
I2
sI6
I3
sI7
I1
sI8
I1
sI10
I1
sI11
I2
sI13
I1
sI16
I2
sI17
I1
sI19
I1
sI20
I1
sI21
I1
sI22
I1
sI23
I1
sI24
I1
sI25
I1
sI31
I1
sI34
I1
sI36
I1
sI39
I2
sI45
I1
sI47
I1
sI54
I1
sI58
I1
sI65
I1
sI74
I1
sI79
I2
sI89
I1
sI95
I4
ssI10
g0
(tRp12
I1
I24
sI2
I12
sI3
I4
sI5
I6
sI6
I9
sI7
I6
sI9
I1
sI11
I12
sI12
I1
sI16
I12
sI17
I9
sI18
I3
sI19
I5
sI21
I8
sI22
I5
sI23
I2
sI24
I2
sI25
I6
sI26
I1
sI28
I2
sI29
I4
sI30
I1
sI31
I5
sI32
I26
sI34
I13
sI36
I7
sI39
I12
sI41
I1
sI44
I1
sI45
I1
sI47
I34
sI48
I3
sI50
I27
sI52
I2
sI54
I1
sI58
I2
sI60
I3
sI62
I11
sI69
I6
sI70
I7
sI73
I1
sI74
I2
sI85
I1
sI86
I1
sI89
I2
sI92
I1
sI94
I1
sI95
I13
ssI11
g0
(tRp13
I1
I22
sI2
I11
sI3
I5
sI5
I7
sI6
I13
sI7
I8
sI8
I2
sI9
I2
sI10
I12
sI13
I2
sI14
I2
sI16
I14
sI17
I15
sI19
I5
sI20
I1
sI21
I14
sI22
I6
sI23
I3
sI24
I3
sI25
I7
sI27
I2
sI28
I1
sI29
I1
sI31
I7
sI32
I12
sI34
I20
sI36
I10
sI39
I18
sI40
I1
sI41
I1
sI43
I1
sI44
I1
sI45
I5
sI46
I1
sI47
I19
sI48
I1
sI50
I20
sI52
I6
sI54
I1
sI58
I3
sI60
I2
sI61
I2
sI62
I14
sI63
I1
sI69
I3
sI70
I4
sI71
I1
sI74
I2
sI79
I1
sI86
I2
sI88
I2
sI89
I3
sI94
I4
sI95
I12
sI100
I4
ssI12
g0
(tRp14
I1
I3
sI5
I1
sI6
I1
sI7
I2
sI10
I1
sI15
I1
sI16
I1
sI17
I2
sI19
I1
sI23
I2
sI25
I2
sI26
I1
sI28
I1
sI29
I1
sI32
I2
sI39
I1
sI44
I1
sI47
I1
sI48
I1
sI50
I2
sI62
I1
sI73
I1
sI92
I1
sI93
I1
sI95
I1
ssI13
g0
(tRp15
I1
I4
sI2
I3
sI9
I1
sI11
I2
sI16
I1
sI17
I2
sI21
I1
sI22
I2
sI25
I1
sI30
I1
sI32
I1
sI34
I1
sI36
I1
sI39
I2
sI43
I1
sI45
I1
sI46
I1
sI47
I2
sI48
I1
sI49
I1
sI50
I1
sI52
I1
sI54
I1
sI55
I1
sI57
I1
sI68
I1
sI76
I1
sI77
I1
sI78
I1
sI85
I1
sI86
I1
sI92
I1
sI94
I1
sI95
I1
sI99
I1
ssI14
g0
(tRp16
I1
I6
sI3
I2
sI6
I4
sI8
I1
sI11
I2
sI16
I5
sI17
I6
sI18
I1
sI21
I2
sI22
I2
sI23
I1
sI25
I10
sI26
I1
sI28
I2
sI29
I3
sI30
I1
sI31
I1
sI32
I6
sI34
I5
sI35
I2
sI36
I10
sI39
I2
sI41
I3
sI43
I1
sI45
I2
sI47
I8
sI48
I1
sI50
I9
sI52
I5
sI57
I1
sI58
I3
sI62
I3
sI66
I1
sI68
I1
sI70
I2
sI72
I2
sI73
I1
sI74
I1
sI76
I1
sI78
I1
sI81
I1
sI85
I1
sI88
I1
sI92
I1
sI94
I2
sI95
I2
sI97
I2
sI100
I1
ssI15
g0
(tRp17
I1
I1
sI12
I1
sI93
I1
sI17
I1
sI50
I1
sI29
I1
ssI16
g0
(tRp18
I1
I35
sI2
I10
sI3
I6
sI5
I5
sI6
I27
sI7
I3
sI8
I2
sI9
I2
sI10
I12
sI11
I14
sI12
I1
sI13
I1
sI14
I5
sI17
I12
sI18
I3
sI19
I4
sI20
I1
sI21
I19
sI22
I5
sI23
I5
sI24
I3
sI25
I23
sI28
I4
sI29
I9
sI30
I4
sI31
I5
sI32
I35
sI34
I22
sI35
I2
sI36
I23
sI39
I16
sI41
I2
sI43
I4
sI44
I1
sI45
I8
sI46
I2
sI47
I46
sI48
I2
sI49
I1
sI50
I40
sI52
I8
sI55
I2
sI57
I2
sI58
I4
sI60
I1
sI61
I1
sI62
I4
sI63
I2
sI65
I1
sI68
I2
sI69
I6
sI70
I10
sI73
I1
sI74
I1
sI76
I1
sI77
I1
sI78
I1
sI79
I1
sI82
I2
sI85
I4
sI86
I4
sI88
I1
sI89
I3
sI92
I3
sI94
I7
sI95
I6
sI97
I2
sI99
I1
sI100
I4
ssI17
g0
(tRp19
I1
I26
sI2
I7
sI3
I5
sI5
I5
sI6
I9
sI7
I7
sI9
I1
sI10
I9
sI11
I15
sI12
I2
sI13
I2
sI14
I6
sI15
I1
sI16
I12
sI18
I3
sI19
I2
sI21
I12
sI22
I3
sI24
I1
sI25
I13
sI26
I3
sI28
I11
sI29
I10
sI30
I2
sI31
I1
sI32
I20
sI34
I24
sI35
I3
sI36
I22
sI39
I16
sI40
I1
sI41
I6
sI43
I5
sI45
I4
sI46
I1
sI47
I23
sI48
I6
sI50
I23
sI52
I11
sI54
I1
sI55
I2
sI57
I1
sI58
I11
sI60
I2
sI61
I1
sI62
I18
sI63
I1
sI66
I1
sI68
I2
sI69
I2
sI70
I2
sI72
I1
sI73
I2
sI74
I3
sI76
I3
sI78
I1
sI79
I2
sI81
I2
sI82
I3
sI84
I1
sI85
I4
sI86
I4
sI88
I1
sI89
I1
sI92
I3
sI93
I1
sI94
I6
sI95
I12
sI97
I1
sI100
I4
ssI18
g0
(tRp20
I1
I5
sI2
I2
sI3
I2
sI6
I3
sI7
I1
sI10
I3
sI14
I1
sI16
I3
sI17
I3
sI21
I2
sI22
I1
sI23
I1
sI25
I3
sI26
I1
sI28
I2
sI29
I1
sI30
I1
sI31
I1
sI32
I9
sI34
I1
sI35
I1
sI36
I5
sI39
I2
sI41
I1
sI43
I1
sI45
I2
sI47
I5
sI50
I6
sI52
I1
sI55
I1
sI57
I1
sI58
I2
sI60
I1
sI62
I2
sI68
I2
sI69
I2
sI70
I2
sI72
I1
sI73
I1
sI81
I1
sI85
I2
sI86
I1
sI88
I1
sI89
I1
sI95
I1
sI97
I1
ssI19
g0
(tRp21
I1
I8
sI2
I5
sI3
I2
sI5
I3
sI6
I4
sI7
I1
sI9
I1
sI10
I5
sI11
I5
sI12
I1
sI16
I4
sI17
I2
sI21
I2
sI23
I2
sI24
I2
sI25
I3
sI31
I1
sI32
I5
sI34
I6
sI36
I1
sI39
I4
sI45
I3
sI47
I7
sI48
I2
sI50
I4
sI52
I1
sI58
I1
sI60
I1
sI62
I1
sI63
I1
sI69
I1
sI70
I2
sI86
I1
sI88
I1
sI94
I1
sI95
I1
ssI20
g0
(tRp22
I2
I2
sI5
I1
sI6
I2
sI8
I1
sI9
I1
sI11
I1
sI16
I1
sI21
I1
sI22
I1
sI23
I1
sI24
I1
sI25
I2
sI27
I1
sI31
I1
sI32
I1
sI36
I1
sI47
I1
sI61
I1
sI62
I1
sI65
I1
sI71
I1
sI74
I1
sI79
I2
sI89
I2
sI95
I2
ssI21
g0
(tRp23
I1
I22
sI2
I7
sI3
I2
sI5
I3
sI6
I17
sI7
I6
sI8
I2
sI9
I1
sI10
I8
sI11
I14
sI13
I1
sI14
I2
sI16
I19
sI17
I12
sI18
I2
sI19
I2
sI20
I1
sI22
I3
sI23
I1
sI24
I1
sI25
I21
sI26
I1
sI28
I3
sI29
I4
sI30
I4
sI31
I6
sI32
I22
sI34
I19
sI35
I2
sI36
I16
sI39
I12
sI41
I5
sI43
I3
sI45
I10
sI46
I2
sI47
I28
sI49
I1
sI50
I35
sI52
I9
sI55
I2
sI57
I2
sI58
I5
sI62
I6
sI63
I1
sI65
I1
sI68
I2
sI69
I5
sI70
I4
sI73
I2
sI74
I1
sI76
I1
sI77
I1
sI78
I1
sI79
I1
sI82
I2
sI84
I1
sI85
I3
sI86
I1
sI89
I1
sI92
I1
sI94
I6
sI95
I4
sI99
I1
sI100
I4
ssI22
g0
(tRp24
I1
I6
sI2
I7
sI3
I1
sI5
I1
sI6
I8
sI7
I3
sI9
I1
sI10
I5
sI11
I6
sI13
I2
sI14
I2
sI16
I5
sI17
I3
sI18
I1
sI20
I1
sI21
I3
sI23
I3
sI24
I1
sI25
I5
sI27
I2
sI29
I1
sI30
I2
sI31
I6
sI32
I8
sI34
I4
sI36
I6
sI39
I5
sI43
I1
sI44
I1
sI45
I1
sI46
I2
sI47
I12
sI49
I1
sI50
I7
sI52
I3
sI54
I1
sI55
I1
sI57
I2
sI60
I1
sI61
I3
sI62
I4
sI68
I1
sI70
I3
sI71
I2
sI72
I1
sI74
I2
sI76
I1
sI77
I1
sI78
I1
sI79
I1
sI85
I1
sI86
I2
sI89
I3
sI92
I2
sI94
I3
sI95
I7
sI99
I1
sI100
I1
ssI23
g0
(tRp25
I1
I4
sI2
I2
sI3
I1
sI5
I1
sI6
I6
sI7
I1
sI8
I1
sI9
I1
sI10
I2
sI11
I3
sI12
I2
sI14
I1
sI16
I5
sI18
I1
sI19
I2
sI20
I1
sI21
I1
sI22
I3
sI25
I3
sI27
I1
sI31
I2
sI32
I3
sI34
I2
sI36
I2
sI39
I2
sI44
I1
sI45
I1
sI47
I5
sI50
I5
sI52
I1
sI57
I1
sI60
I1
sI61
I2
sI62
I1
sI69
I1
sI70
I2
sI71
I1
sI79
I1
sI86
I1
sI89
I2
sI95
I3
sI100
I1
ssI24
g0
(tRp26
I1
I2
sI2
I3
sI5
I2
sI6
I3
sI8
I1
sI9
I1
sI10
I2
sI11
I3
sI16
I3
sI17
I1
sI19
I2
sI20
I1
sI21
I1
sI22
I1
sI25
I1
sI29
I1
sI32
I4
sI34
I3
sI36
I2
sI44
I1
sI47
I2
sI50
I4
sI58
I1
sI60
I2
sI62
I2
sI63
I1
sI65
I1
sI70
I2
sI71
I1
sI74
I1
sI79
I1
sI86
I1
sI88
I1
sI89
I2
sI94
I2
ssI25
g0
(tRp27
I1
I29
sI2
I6
sI3
I5
sI5
I3
sI6
I25
sI7
I6
sI8
I2
sI9
I1
sI10
I6
sI11
I7
sI12
I2
sI13
I1
sI14
I10
sI16
I23
sI17
I13
sI18
I3
sI19
I3
sI20
I2
sI21
I21
sI22
I5
sI23
I3
sI24
I1
sI26
I1
sI28
I6
sI29
I8
sI30
I6
sI31
I5
sI32
I36
sI34
I23
sI35
I3
sI36
I36
sI39
I9
sI41
I4
sI43
I2
sI44
I1
sI45
I13
sI46
I2
sI47
I36
sI49
I1
sI50
I44
sI52
I18
sI55
I4
sI57
I3
sI58
I9
sI61
I1
sI62
I11
sI63
I2
sI65
I1
sI66
I1
sI68
I4
sI69
I5
sI70
I4
sI72
I1
sI73
I2
sI74
I2
sI76
I3
sI77
I1
sI78
I5
sI79
I2
sI81
I2
sI82
I2
sI85
I8
sI86
I3
sI88
I1
sI89
I1
sI92
I5
sI94
I6
sI95
I7
sI97
I1
sI99
I2
sI100
I6
ssI26
g0
(tRp28
I1
I2
sI3
I1
sI5
I2
sI6
I1
sI7
I1
sI10
I1
sI12
I1
sI14
I1
sI17
I3
sI18
I1
sI21
I1
sI25
I1
sI28
I2
sI29
I1
sI30
I1
sI32
I3
sI35
I1
sI36
I2
sI39
I2
sI41
I2
sI47
I2
sI48
I1
sI50
I1
sI52
I1
sI58
I2
sI61
I1
sI62
I3
sI63
I1
sI68
I1
sI70
I1
sI72
I1
sI73
I1
sI76
I1
sI79
I1
sI81
I2
sI82
I1
sI85
I1
sI86
I1
sI92
I2
sI95
I1
sI97
I1
sI100
I1
ssI27
g0
(tRp29
I1
I1
sI2
I2
sI5
I1
sI6
I2
sI7
I1
sI11
I2
sI20
I1
sI22
I2
sI23
I1
sI31
I2
sI32
I1
sI34
I1
sI36
I1
sI39
I1
sI46
I1
sI52
I1
sI61
I2
sI62
I2
sI71
I1
sI74
I1
sI79
I1
sI89
I1
sI94
I1
sI95
I1
ssI28
g0
(tRp30
I1
I5
sI2
I2
sI5
I1
sI6
I4
sI7
I3
sI10
I2
sI11
I1
sI12
I1
sI14
I2
sI16
I4
sI17
I11
sI18
I2
sI21
I3
sI25
I6
sI26
I2
sI29
I2
sI30
I2
sI32
I6
sI34
I7
sI35
I3
sI36
I8
sI39
I3
sI41
I2
sI43
I2
sI45
I3
sI47
I5
sI48
I2
sI50
I6
sI52
I6
sI55
I2
sI58
I6
sI60
I1
sI62
I2
sI68
I2
sI69
I1
sI72
I1
sI73
I1
sI78
I2
sI81
I1
sI82
I1
sI85
I4
sI86
I1
sI92
I1
sI94
I2
sI95
I1
sI97
I1
sI99
I1
sI100
I1
ssI29
g0
(tRp31
I1
I18
sI2
I6
sI4
I1
sI6
I9
sI7
I1
sI10
I4
sI11
I1
sI12
I1
sI14
I3
sI15
I1
sI16
I9
sI17
I10
sI18
I1
sI21
I4
sI22
I1
sI24
I1
sI25
I8
sI26
I1
sI28
I2
sI30
I3
sI32
I20
sI34
I10
sI35
I2
sI36
I12
sI39
I6
sI40
I1
sI41
I2
sI43
I4
sI45
I3
sI47
I18
sI48
I2
sI50
I18
sI52
I4
sI55
I1
sI58
I4
sI62
I2
sI68
I2
sI69
I3
sI70
I3
sI72
I2
sI78
I1
sI81
I2
sI82
I3
sI85
I5
sI92
I2
sI93
I1
sI94
I3
sI95
I2
sI97
I2
sI100
I1
ssI30
g0
(tRp32
I1
I4
sI2
I2
sI6
I3
sI7
I2
sI10
I1
sI13
I1
sI14
I1
sI16
I4
sI17
I2
sI18
I1
sI21
I4
sI22
I2
sI25
I6
sI26
I1
sI28
I2
sI29
I3
sI31
I1
sI32
I7
sI34
I3
sI35
I3
sI36
I5
sI39
I2
sI41
I1
sI43
I2
sI45
I1
sI46
I2
sI47
I6
sI49
I1
sI50
I4
sI52
I2
sI55
I2
sI57
I1
sI58
I1
sI68
I3
sI72
I1
sI76
I1
sI77
I1
sI78
I1
sI81
I1
sI82
I1
sI85
I5
sI86
I1
sI92
I1
sI94
I2
sI95
I1
sI97
I1
sI99
I1
sI100
I1
ssI31
g0
(tRp33
I1
I4
sI2
I4
sI3
I2
sI5
I2
sI6
I7
sI7
I5
sI9
I1
sI10
I5
sI11
I7
sI14
I1
sI16
I5
sI17
I1
sI18
I1
sI19
I1
sI20
I1
sI21
I6
sI22
I6
sI23
I2
sI25
I5
sI27
I2
sI30
I1
sI32
I7
sI34
I2
sI36
I4
sI39
I5
sI44
I1
sI45
I1
sI46
I1
sI47
I7
sI50
I7
sI52
I2
sI58
I1
sI61
I2
sI62
I4
sI63
I1
sI69
I2
sI70
I2
sI71
I1
sI74
I2
sI79
I1
sI89
I1
sI94
I2
sI95
I5
sI100
I2
ssI32
g0
(tRp34
I1
I57
sI2
I17
sI3
I6
sI4
I1
sI5
I8
sI6
I40
sI7
I10
sI10
I26
sI11
I12
sI12
I2
sI13
I1
sI14
I6
sI16
I35
sI17
I20
sI18
I9
sI19
I5
sI20
I1
sI21
I22
sI22
I8
sI23
I3
sI24
I4
sI25
I36
sI26
I3
sI27
I1
sI28
I6
sI29
I20
sI30
I7
sI31
I7
sI34
I29
sI35
I2
sI36
I37
sI39
I16
sI40
I2
sI41
I10
sI43
I4
sI44
I3
sI45
I10
sI46
I2
sI47
I75
sI48
I5
sI49
I1
sI50
I73
sI52
I16
sI55
I4
sI57
I3
sI58
I18
sI60
I3
sI61
I3
sI62
I24
sI63
I2
sI65
I1
sI68
I5
sI69
I8
sI70
I12
sI72
I2
sI73
I5
sI74
I2
sI76
I4
sI77
I1
sI78
I4
sI79
I2
sI80
I1
sI81
I4
sI82
I4
sI85
I7
sI86
I6
sI88
I1
sI89
I3
sI92
I5
sI94
I7
sI95
I15
sI97
I1
sI99
I1
sI100
I6
ssI34
g0
(tRp35
I1
I54
sI2
I17
sI3
I2
sI5
I6
sI6
I22
sI7
I6
sI8
I2
sI9
I1
sI10
I13
sI11
I20
sI13
I1
sI14
I5
sI16
I22
sI17
I24
sI18
I1
sI19
I6
sI21
I19
sI22
I4
sI23
I2
sI24
I3
sI25
I23
sI27
I1
sI28
I7
sI29
I10
sI30
I3
sI31
I2
sI32
I29
sI35
I3
sI36
I24
sI39
I25
sI40
I2
sI41
I3
sI43
I3
sI45
I11
sI46
I2
sI47
I47
sI48
I4
sI50
I45
sI52
I12
sI54
I1
sI55
I2
sI57
I2
sI58
I10
sI60
I5
sI61
I1
sI62
I16
sI69
I2
sI70
I4
sI72
I1
sI73
I1
sI74
I1
sI76
I1
sI78
I3
sI79
I1
sI82
I2
sI85
I4
sI86
I1
sI89
I1
sI92
I1
sI94
I6
sI95
I6
sI97
I2
sI100
I3
ssI35
g0
(tRp36
I1
I2
sI2
I1
sI6
I1
sI14
I2
sI16
I2
sI17
I3
sI18
I1
sI21
I2
sI25
I3
sI26
I1
sI28
I3
sI29
I2
sI30
I3
sI32
I2
sI34
I3
sI36
I3
sI39
I1
sI41
I1
sI43
I1
sI45
I1
sI46
I2
sI47
I4
sI50
I4
sI52
I2
sI55
I1
sI58
I3
sI68
I1
sI72
I1
sI77
I1
sI78
I1
sI81
I1
sI82
I1
sI85
I3
sI94
I1
sI97
I1
sI100
I1
ssI36
g0
(tRp37
I1
I35
sI2
I10
sI3
I4
sI5
I8
sI6
I22
sI7
I3
sI8
I1
sI9
I1
sI10
I7
sI11
I10
sI13
I1
sI14
I10
sI16
I23
sI17
I22
sI18
I5
sI19
I1
sI20
I1
sI21
I16
sI22
I6
sI23
I2
sI24
I2
sI25
I36
sI26
I2
sI27
I1
sI28
I8
sI29
I12
sI30
I5
sI31
I4
sI32
I37
sI34
I24
sI35
I3
sI39
I13
sI41
I7
sI43
I4
sI45
I10
sI46
I2
sI47
I34
sI48
I2
sI49
I1
sI50
I41
sI52
I12
sI55
I4
sI57
I3
sI58
I13
sI60
I1
sI61
I3
sI62
I17
sI63
I2
sI65
I1
sI68
I5
sI69
I5
sI70
I3
sI72
I2
sI73
I1
sI74
I3
sI76
I2
sI77
I1
sI78
I5
sI79
I3
sI80
I1
sI81
I4
sI82
I2
sI84
I1
sI85
I7
sI86
I6
sI89
I3
sI92
I4
sI94
I9
sI95
I9
sI97
I2
sI99
I2
sI100
I5
ssI39
g0
(tRp38
I1
I33
sI2
I13
sI3
I4
sI5
I6
sI6
I11
sI7
I6
sI8
I1
sI9
I2
sI10
I12
sI11
I18
sI12
I1
sI13
I2
sI14
I2
sI16
I16
sI17
I16
sI18
I2
sI19
I4
sI21
I12
sI22
I5
sI23
I2
sI25
I9
sI26
I2
sI27
I1
sI28
I3
sI29
I6
sI30
I2
sI31
I5
sI32
I16
sI34
I25
sI35
I1
sI36
I13
sI40
I1
sI41
I2
sI43
I1
sI44
I1
sI45
I10
sI46
I2
sI47
I28
sI48
I3
sI49
I1
sI50
I33
sI52
I4
sI54
I1
sI55
I1
sI57
I2
sI58
I4
sI60
I1
sI61
I1
sI62
I6
sI63
I1
sI68
I2
sI69
I5
sI70
I3
sI72
I1
sI73
I2
sI74
I2
sI76
I1
sI77
I1
sI78
I1
sI79
I1
sI81
I1
sI85
I4
sI86
I2
sI89
I1
sI92
I2
sI94
I3
sI95
I9
sI97
I1
sI99
I2
ssI40
g0
(tRp39
I32
I2
sI1
I2
sI34
I2
sI100
I1
sI6
I2
sI39
I1
sI11
I1
sI17
I1
sI50
I1
sI52
I1
sI58
I1
sI29
I1
sI62
I1
sI95
I1
ssI41
g0
(tRp40
I1
I5
sI3
I3
sI5
I2
sI6
I3
sI7
I1
sI10
I1
sI11
I1
sI14
I3
sI16
I2
sI17
I6
sI18
I1
sI21
I5
sI25
I4
sI26
I2
sI28
I2
sI29
I2
sI30
I1
sI32
I10
sI34
I3
sI35
I1
sI36
I7
sI39
I2
sI43
I1
sI45
I1
sI47
I5
sI50
I9
sI52
I3
sI58
I5
sI62
I4
sI66
I1
sI68
I2
sI69
I1
sI70
I1
sI72
I1
sI73
I1
sI74
I1
sI76
I2
sI80
I1
sI81
I1
sI85
I2
sI86
I1
sI88
I1
sI94
I1
sI97
I1
ssI43
g0
(tRp41
I1
I4
sI2
I2
sI6
I3
sI7
I1
sI11
I1
sI13
I1
sI14
I1
sI16
I4
sI17
I5
sI18
I1
sI21
I3
sI22
I1
sI25
I2
sI28
I2
sI29
I4
sI30
I2
sI32
I4
sI34
I3
sI35
I1
sI36
I4
sI39
I1
sI41
I1
sI45
I1
sI46
I1
sI47
I2
sI49
I1
sI50
I3
sI52
I3
sI55
I2
sI57
I1
sI58
I1
sI60
I1
sI62
I2
sI68
I1
sI76
I1
sI77
I1
sI78
I1
sI82
I2
sI85
I2
sI86
I2
sI92
I1
sI94
I3
sI99
I1
sI100
I1
ssI44
g0
(tRp42
I32
I3
sI1
I2
sI6
I1
sI70
I1
sI39
I1
sI10
I1
sI11
I1
sI12
I1
sI47
I2
sI16
I1
sI50
I2
sI22
I1
sI23
I1
sI24
I1
sI25
I1
sI58
I1
sI62
I1
sI31
I1
ssI45
g0
(tRp43
I1
I9
sI2
I5
sI3
I2
sI4
I1
sI5
I1
sI6
I5
sI7
I3
sI8
I1
sI9
I1
sI10
I1
sI11
I5
sI13
I1
sI14
I2
sI16
I8
sI17
I4
sI18
I2
sI19
I3
sI21
I10
sI22
I1
sI23
I1
sI25
I13
sI28
I3
sI29
I3
sI30
I1
sI31
I1
sI32
I10
sI34
I11
sI35
I1
sI36
I10
sI39
I10
sI41
I1
sI43
I1
sI46
I1
sI47
I13
sI48
I1
sI49
I1
sI50
I17
sI52
I6
sI55
I2
sI57
I3
sI58
I3
sI62
I1
sI68
I3
sI69
I1
sI73
I2
sI76
I1
sI77
I1
sI78
I3
sI79
I1
sI85
I3
sI86
I2
sI89
I1
sI92
I2
sI94
I3
sI95
I2
sI97
I1
sI99
I2
ssI46
g0
(tRp44
I1
I3
sI2
I2
sI5
I1
sI6
I1
sI7
I1
sI11
I1
sI13
I1
sI16
I2
sI17
I1
sI21
I2
sI22
I2
sI25
I2
sI27
I1
sI30
I2
sI31
I1
sI32
I2
sI34
I2
sI35
I2
sI36
I2
sI39
I2
sI43
I1
sI45
I1
sI47
I2
sI49
I1
sI50
I3
sI52
I2
sI55
I1
sI57
I1
sI58
I1
sI61
I1
sI62
I1
sI68
I1
sI74
I1
sI76
I1
sI77
I1
sI78
I1
sI85
I2
sI86
I1
sI92
I1
sI94
I2
sI99
I1
ssI47
g0
(tRp45
I1
I67
sI2
I22
sI3
I3
sI5
I6
sI6
I39
sI7
I6
sI8
I2
sI9
I1
sI10
I34
sI11
I19
sI12
I1
sI13
I2
sI14
I8
sI16
I46
sI17
I23
sI18
I5
sI19
I7
sI20
I1
sI21
I28
sI22
I12
sI23
I5
sI24
I2
sI25
I36
sI26
I2
sI28
I5
sI29
I18
sI30
I6
sI31
I7
sI32
I75
sI34
I47
sI35
I4
sI36
I34
sI39
I28
sI41
I5
sI43
I2
sI44
I2
sI45
I13
sI46
I2
sI48
I5
sI49
I1
sI50
I95
sI52
I13
sI53
I1
sI54
I1
sI55
I2
sI57
I3
sI58
I6
sI60
I5
sI61
I1
sI62
I16
sI63
I1
sI68
I3
sI69
I9
sI70
I17
sI72
I2
sI73
I2
sI74
I1
sI76
I2
sI77
I1
sI78
I3
sI79
I1
sI81
I1
sI82
I3
sI85
I6
sI86
I3
sI89
I4
sI92
I3
sI94
I7
sI95
I18
sI97
I4
sI99
I1
sI100
I3
ssI48
g0
(tRp46
I1
I10
sI2
I2
sI3
I1
sI5
I2
sI6
I1
sI7
I3
sI8
I1
sI10
I3
sI11
I1
sI12
I1
sI13
I1
sI14
I1
sI16
I2
sI17
I6
sI19
I2
sI26
I1
sI28
I2
sI29
I2
sI32
I5
sI34
I4
sI36
I2
sI39
I3
sI45
I1
sI47
I5
sI50
I3
sI58
I1
sI62
I4
sI73
I1
sI79
I1
sI86
I1
sI89
I1
sI92
I1
sI95
I3
ssI49
g0
(tRp47
I1
I1
sI2
I1
sI13
I1
sI16
I1
sI21
I1
sI22
I1
sI25
I1
sI30
I1
sI32
I1
sI36
I1
sI39
I1
sI43
I1
sI45
I1
sI46
I1
sI47
I1
sI50
I1
sI52
I1
sI55
I1
sI57
I1
sI68
I1
sI76
I1
sI77
I1
sI78
I1
sI85
I1
sI86
I1
sI92
I1
sI94
I1
sI99
I1
ssI50
g0
(tRp48
I1
I73
sI2
I16
sI3
I4
sI4
I1
sI5
I6
sI6
I35
sI7
I6
sI8
I1
sI10
I27
sI11
I20
sI12
I2
sI13
I1
sI14
I9
sI15
I1
sI16
I40
sI17
I23
sI18
I6
sI19
I4
sI21
I35
sI22
I7
sI23
I5
sI24
I4
sI25
I44
sI26
I1
sI28
I6
sI29
I18
sI30
I4
sI31
I7
sI32
I73
sI34
I45
sI35
I4
sI36
I41
sI39
I33
sI40
I1
sI41
I9
sI43
I3
sI44
I2
sI45
I17
sI46
I3
sI47
I95
sI48
I3
sI49
I1
sI52
I18
sI53
I1
sI55
I3
sI57
I4
sI58
I16
sI60
I3
sI62
I14
sI63
I1
sI68
I3
sI69
I13
sI70
I13
sI72
I2
sI73
I3
sI74
I1
sI76
I1
sI77
I1
sI78
I5
sI80
I1
sI82
I4
sI85
I7
sI86
I1
sI88
I1
sI89
I2
sI92
I4
sI93
I1
sI94
I8
sI95
I11
sI97
I2
sI99
I2
sI100
I5
ssI52
g0
(tRp49
I1
I17
sI2
I4
sI3
I4
sI5
I3
sI6
I5
sI7
I3
sI8
I1
sI10
I2
sI11
I6
sI13
I1
sI14
I5
sI16
I8
sI17
I11
sI18
I1
sI19
I1
sI21
I9
sI22
I3
sI23
I1
sI25
I18
sI26
I1
sI27
I1
sI28
I6
sI29
I4
sI30
I2
sI31
I2
sI32
I16
sI34
I12
sI35
I2
sI36
I12
sI39
I4
sI40
I1
sI41
I3
sI43
I3
sI45
I6
sI46
I2
sI47
I13
sI49
I1
sI50
I18
sI53
I1
sI55
I3
sI57
I1
sI58
I9
sI61
I2
sI62
I7
sI63
I1
sI66
I1
sI68
I2
sI69
I2
sI70
I1
sI73
I1
sI74
I2
sI76
I3
sI77
I1
sI78
I5
sI79
I1
sI81
I1
sI82
I4
sI85
I4
sI86
I2
sI88
I1
sI92
I3
sI94
I4
sI95
I2
sI99
I1
sI100
I4
ssI53
g0
(tRp50
I1
I1
sI82
I1
sI52
I1
sI50
I1
sI47
I1
ssI54
g0
(tRp51
I1
I1
sI2
I2
sI5
I1
sI39
I1
sI9
I1
sI10
I1
sI11
I1
sI34
I1
sI13
I1
sI17
I1
sI22
I1
sI47
I1
sI74
I1
sI62
I1
sI95
I2
ssI55
g0
(tRp52
I1
I3
sI2
I2
sI6
I1
sI13
I1
sI16
I2
sI17
I2
sI18
I1
sI21
I2
sI22
I1
sI25
I4
sI28
I2
sI29
I1
sI30
I2
sI32
I4
sI34
I2
sI35
I1
sI36
I4
sI39
I1
sI43
I2
sI45
I2
sI46
I1
sI47
I2
sI49
I1
sI50
I3
sI52
I3
sI57
I2
sI58
I2
sI62
I1
sI68
I2
sI76
I1
sI77
I1
sI78
I1
sI82
I1
sI85
I2
sI86
I1
sI92
I1
sI94
I2
sI99
I1
sI100
I1
ssI57
g0
(tRp53
I1
I2
sI2
I1
sI13
I1
sI14
I1
sI16
I2
sI17
I1
sI18
I1
sI21
I2
sI22
I2
sI23
I1
sI25
I3
sI30
I1
sI32
I3
sI34
I2
sI36
I3
sI39
I2
sI43
I1
sI45
I3
sI46
I1
sI47
I3
sI49
I1
sI50
I4
sI52
I1
sI55
I2
sI58
I1
sI60
I1
sI68
I2
sI76
I1
sI77
I1
sI78
I1
sI85
I1
sI86
I1
sI92
I1
sI94
I2
sI99
I1
ssI58
g0
(tRp54
I1
I13
sI3
I2
sI5
I1
sI6
I5
sI7
I4
sI9
I1
sI10
I2
sI11
I3
sI14
I3
sI16
I4
sI17
I11
sI18
I2
sI19
I1
sI21
I5
sI24
I1
sI25
I9
sI26
I2
sI28
I6
sI29
I4
sI30
I1
sI31
I1
sI32
I18
sI34
I10
sI35
I3
sI36
I13
sI39
I4
sI40
I1
sI41
I5
sI43
I1
sI44
I1
sI45
I3
sI46
I1
sI47
I6
sI48
I1
sI50
I16
sI52
I9
sI55
I2
sI57
I1
sI59
I1
sI61
I1
sI62
I5
sI63
I1
sI68
I2
sI69
I1
sI72
I1
sI73
I1
sI76
I1
sI78
I2
sI79
I2
sI80
I2
sI81
I2
sI82
I1
sI84
I1
sI85
I2
sI86
I1
sI89
I1
sI92
I1
sI94
I2
sI95
I2
sI97
I1
sI100
I2
ssI59
g0
(tRp55
I80
I1
sI58
I1
sI94
I1
ssI60
g0
(tRp56
I1
I4
sI2
I2
sI3
I1
sI5
I2
sI6
I2
sI7
I1
sI8
I1
sI10
I3
sI11
I2
sI16
I1
sI17
I2
sI18
I1
sI19
I1
sI22
I1
sI23
I1
sI24
I2
sI28
I1
sI32
I3
sI34
I5
sI36
I1
sI39
I1
sI43
I1
sI47
I5
sI50
I3
sI57
I1
sI62
I2
sI69
I1
sI70
I2
sI86
I1
sI94
I1
ssI61
g0
(tRp57
I1
I3
sI2
I3
sI3
I1
sI5
I2
sI6
I3
sI7
I1
sI11
I2
sI16
I1
sI17
I1
sI20
I1
sI22
I3
sI23
I2
sI25
I1
sI26
I1
sI27
I2
sI31
I2
sI32
I3
sI34
I1
sI36
I3
sI39
I1
sI46
I1
sI47
I1
sI52
I2
sI58
I1
sI62
I3
sI63
I1
sI71
I1
sI74
I1
sI76
I1
sI79
I2
sI81
I1
sI82
I1
sI86
I2
sI89
I2
sI92
I1
sI94
I1
sI95
I3
sI100
I1
ssI62
g0
(tRp58
I1
I20
sI2
I11
sI3
I7
sI5
I10
sI6
I11
sI7
I9
sI8
I1
sI10
I11
sI11
I14
sI12
I1
sI14
I3
sI16
I4
sI17
I18
sI18
I2
sI19
I1
sI20
I1
sI21
I6
sI22
I4
sI23
I1
sI24
I2
sI25
I11
sI26
I3
sI27
I2
sI28
I2
sI29
I2
sI31
I4
sI32
I24
sI34
I16
sI36
I17
sI39
I6
sI40
I1
sI41
I4
sI43
I2
sI44
I1
sI45
I1
sI46
I1
sI47
I16
sI48
I4
sI50
I14
sI52
I7
sI54
I1
sI55
I1
sI58
I5
sI60
I2
sI61
I3
sI63
I1
sI69
I1
sI70
I5
sI71
I1
sI73
I2
sI74
I3
sI76
I3
sI79
I2
sI81
I1
sI82
I2
sI85
I1
sI86
I4
sI89
I3
sI92
I2
sI94
I3
sI95
I10
sI100
I4
ssI63
g0
(tRp59
I1
I2
sI3
I1
sI5
I1
sI6
I2
sI11
I1
sI16
I2
sI17
I1
sI19
I1
sI21
I1
sI24
I1
sI25
I2
sI26
I1
sI31
I1
sI32
I2
sI36
I2
sI39
I1
sI47
I1
sI50
I1
sI52
I1
sI58
I1
sI61
I1
sI62
I1
sI69
I1
sI70
I2
sI76
I1
sI79
I1
sI81
I1
sI82
I1
sI86
I2
sI88
I1
sI92
I1
sI95
I1
sI100
I1
ssI65
g0
(tRp60
I32
I1
sI2
I1
sI36
I1
sI5
I1
sI6
I2
sI8
I1
sI9
I1
sI74
I1
sI79
I1
sI16
I1
sI20
I1
sI21
I1
sI25
I1
sI24
I1
sI89
I1
ssI66
g0
(tRp61
I3
I1
sI41
I1
sI74
I1
sI76
I1
sI14
I1
sI17
I1
sI52
I1
sI88
I1
sI25
I1
ssI68
g0
(tRp62
I1
I1
sI2
I1
sI13
I1
sI14
I1
sI16
I2
sI17
I2
sI18
I2
sI21
I2
sI22
I1
sI25
I4
sI26
I1
sI28
I2
sI29
I2
sI30
I3
sI32
I5
sI35
I1
sI36
I5
sI39
I2
sI41
I2
sI43
I1
sI45
I3
sI46
I1
sI47
I3
sI49
I1
sI50
I3
sI52
I2
sI55
I2
sI57
I2
sI58
I2
sI69
I1
sI72
I1
sI76
I1
sI77
I1
sI78
I1
sI81
I1
sI85
I3
sI86
I1
sI92
I1
sI94
I2
sI97
I1
sI99
I1
ssI69
g0
(tRp63
I1
I12
sI2
I1
sI3
I3
sI6
I5
sI7
I1
sI10
I6
sI11
I3
sI16
I6
sI17
I2
sI18
I2
sI19
I1
sI21
I5
sI23
I1
sI25
I5
sI28
I1
sI29
I3
sI31
I2
sI32
I8
sI34
I2
sI36
I5
sI39
I5
sI41
I1
sI45
I1
sI47
I9
sI50
I13
sI52
I2
sI58
I1
sI60
I1
sI62
I1
sI63
I1
sI68
I1
sI70
I3
sI85
I1
sI88
I1
sI94
I2
ssI70
g0
(tRp64
I1
I11
sI2
I2
sI3
I1
sI5
I2
sI6
I10
sI8
I1
sI10
I7
sI11
I4
sI14
I2
sI16
I10
sI17
I2
sI18
I2
sI19
I2
sI21
I4
sI22
I3
sI23
I2
sI24
I2
sI25
I4
sI26
I1
sI29
I3
sI31
I2
sI32
I12
sI34
I4
sI36
I3
sI39
I3
sI41
I1
sI44
I1
sI47
I17
sI50
I13
sI52
I1
sI60
I2
sI62
I5
sI63
I2
sI69
I3
sI76
I1
sI86
I1
sI88
I1
sI89
I1
sI94
I1
sI95
I2
sI97
I1
sI100
I1
ssI71
g0
(tRp65
I2
I1
sI6
I1
sI31
I1
sI11
I1
sI79
I1
sI20
I1
sI94
I1
sI22
I2
sI23
I1
sI24
I1
sI89
I1
sI27
I1
sI61
I1
sI62
I1
sI95
I1
ssI72
g0
(tRp66
I6
I1
sI14
I2
sI17
I1
sI18
I1
sI22
I1
sI25
I1
sI26
I1
sI28
I1
sI29
I2
sI30
I1
sI32
I2
sI34
I1
sI35
I1
sI36
I2
sI39
I1
sI41
I1
sI47
I2
sI50
I2
sI58
I1
sI68
I1
sI81
I1
sI82
I1
sI85
I1
sI97
I1
ssI73
g0
(tRp67
I1
I4
sI2
I1
sI5
I1
sI6
I1
sI7
I2
sI10
I1
sI12
I1
sI14
I1
sI16
I1
sI17
I2
sI18
I1
sI21
I2
sI25
I2
sI26
I1
sI28
I1
sI32
I5
sI34
I1
sI36
I1
sI39
I2
sI41
I1
sI45
I2
sI47
I2
sI48
I1
sI50
I3
sI52
I1
sI58
I1
sI62
I2
sI92
I1
sI95
I1
ssI74
g0
(tRp68
I1
I1
sI2
I4
sI3
I2
sI5
I3
sI6
I2
sI7
I1
sI8
I1
sI9
I1
sI10
I2
sI11
I2
sI14
I1
sI16
I1
sI17
I3
sI20
I1
sI21
I1
sI22
I2
sI24
I1
sI25
I2
sI27
I1
sI31
I2
sI32
I2
sI34
I1
sI36
I3
sI39
I2
sI41
I1
sI46
I1
sI47
I1
sI50
I1
sI52
I2
sI54
I1
sI61
I1
sI62
I3
sI65
I1
sI66
I1
sI76
I1
sI79
I1
sI88
I1
sI89
I1
sI94
I1
sI95
I2
ssI76
g0
(tRp69
I1
I4
sI2
I1
sI3
I3
sI5
I1
sI6
I1
sI13
I1
sI14
I1
sI16
I1
sI17
I3
sI21
I1
sI22
I1
sI25
I3
sI26
I1
sI30
I1
sI32
I4
sI34
I1
sI36
I2
sI39
I1
sI41
I2
sI43
I1
sI45
I1
sI46
I1
sI47
I2
sI49
I1
sI50
I1
sI52
I3
sI55
I1
sI57
I1
sI58
I1
sI61
I1
sI62
I3
sI63
I1
sI66
I1
sI68
I1
sI70
I1
sI74
I1
sI77
I1
sI78
I1
sI79
I1
sI81
I1
sI82
I1
sI85
I1
sI86
I2
sI88
I1
sI92
I2
sI94
I1
sI95
I1
sI99
I1
sI100
I1
ssI77
g0
(tRp70
I1
I1
sI2
I1
sI13
I1
sI16
I1
sI21
I1
sI22
I1
sI25
I1
sI30
I1
sI32
I1
sI35
I1
sI36
I1
sI39
I1
sI43
I1
sI45
I1
sI46
I1
sI47
I1
sI49
I1
sI50
I1
sI52
I1
sI55
I1
sI57
I1
sI68
I1
sI76
I1
sI78
I1
sI85
I1
sI86
I1
sI92
I1
sI94
I1
sI99
I1
ssI78
g0
(tRp71
I1
I4
sI2
I1
sI6
I1
sI13
I1
sI14
I1
sI16
I1
sI17
I1
sI21
I1
sI22
I1
sI25
I5
sI28
I2
sI29
I1
sI30
I1
sI32
I4
sI34
I3
sI35
I1
sI36
I5
sI39
I1
sI43
I1
sI45
I3
sI46
I1
sI47
I3
sI49
I1
sI50
I5
sI52
I5
sI55
I1
sI57
I1
sI58
I2
sI68
I1
sI76
I1
sI77
I1
sI85
I2
sI86
I1
sI92
I2
sI94
I1
sI99
I1
ssI79
g0
(tRp72
I1
I3
sI2
I3
sI3
I1
sI5
I3
sI6
I4
sI7
I1
sI8
I2
sI9
I2
sI11
I1
sI16
I1
sI17
I2
sI20
I2
sI21
I1
sI22
I1
sI23
I1
sI24
I1
sI25
I2
sI26
I1
sI27
I1
sI31
I1
sI32
I2
sI34
I1
sI36
I3
sI39
I1
sI45
I1
sI47
I1
sI48
I1
sI52
I1
sI58
I2
sI61
I2
sI62
I2
sI63
I1
sI65
I1
sI71
I1
sI74
I1
sI76
I1
sI81
I1
sI82
I1
sI86
I3
sI89
I3
sI92
I1
sI95
I4
sI100
I2
ssI80
g0
(tRp73
I32
I1
sI36
I1
sI41
I1
sI50
I1
sI58
I2
sI59
I1
sI94
I1
ssI81
g0
(tRp74
I1
I3
sI3
I1
sI5
I1
sI6
I3
sI14
I1
sI17
I2
sI18
I1
sI25
I2
sI26
I2
sI28
I1
sI29
I2
sI30
I1
sI32
I4
sI35
I1
sI36
I4
sI39
I1
sI41
I1
sI47
I1
sI52
I1
sI58
I2
sI61
I1
sI62
I1
sI63
I1
sI68
I1
sI72
I1
sI76
I1
sI79
I1
sI82
I1
sI85
I1
sI86
I1
sI92
I1
sI95
I1
sI97
I1
sI100
I1
ssI82
g0
(tRp75
I1
I3
sI2
I1
sI3
I1
sI5
I2
sI6
I2
sI16
I2
sI17
I3
sI21
I2
sI25
I2
sI26
I1
sI28
I1
sI29
I3
sI30
I1
sI32
I4
sI34
I2
sI35
I1
sI36
I2
sI43
I2
sI47
I3
sI50
I4
sI52
I4
sI53
I1
sI55
I1
sI58
I1
sI61
I1
sI62
I2
sI63
I1
sI72
I1
sI76
I1
sI79
I1
sI81
I1
sI85
I1
sI86
I1
sI92
I1
sI94
I1
sI95
I1
sI100
I2
ssI84
g0
(tRp76
I17
I1
sI58
I1
sI36
I1
sI21
I1
ssI85
g0
(tRp77
I1
I8
sI2
I4
sI3
I2
sI6
I5
sI10
I1
sI13
I1
sI14
I1
sI16
I4
sI17
I4
sI18
I2
sI21
I3
sI22
I1
sI25
I8
sI26
I1
sI28
I4
sI29
I5
sI30
I5
sI32
I7
sI34
I4
sI35
I3
sI36
I7
sI39
I4
sI41
I2
sI43
I2
sI45
I3
sI46
I2
sI47
I6
sI49
I1
sI50
I7
sI52
I4
sI55
I2
sI57
I1
sI58
I2
sI62
I1
sI68
I3
sI69
I1
sI72
I1
sI76
I1
sI77
I1
sI78
I2
sI81
I1
sI82
I1
sI86
I2
sI92
I1
sI94
I2
sI97
I2
sI99
I2
sI100
I2
ssI86
g0
(tRp78
I1
I4
sI2
I3
sI3
I1
sI5
I3
sI6
I6
sI7
I1
sI8
I1
sI10
I1
sI11
I2
sI13
I1
sI16
I4
sI17
I4
sI18
I1
sI19
I1
sI21
I1
sI22
I2
sI23
I1
sI24
I1
sI25
I3
sI26
I1
sI28
I1
sI30
I1
sI32
I6
sI34
I1
sI36
I6
sI39
I2
sI41
I1
sI43
I2
sI45
I2
sI46
I1
sI47
I3
sI48
I1
sI49
I1
sI50
I1
sI52
I2
sI55
I1
sI57
I1
sI58
I1
sI60
I1
sI61
I2
sI62
I4
sI63
I2
sI68
I1
sI70
I1
sI76
I2
sI77
I1
sI78
I1
sI79
I3
sI81
I1
sI82
I1
sI85
I2
sI88
I1
sI89
I3
sI92
I2
sI94
I1
sI95
I3
sI99
I1
sI100
I3
ssI88
g0
(tRp79
I1
I1
sI3
I1
sI6
I1
sI11
I2
sI14
I1
sI16
I1
sI17
I1
sI18
I1
sI19
I1
sI24
I1
sI25
I1
sI32
I1
sI41
I1
sI50
I1
sI52
I1
sI63
I1
sI66
I1
sI69
I1
sI70
I1
sI74
I1
sI76
I1
sI86
I1
ssI89
g0
(tRp80
I1
I3
sI2
I5
sI5
I1
sI6
I5
sI7
I1
sI8
I2
sI9
I1
sI10
I2
sI11
I3
sI16
I3
sI17
I1
sI18
I1
sI20
I2
sI21
I1
sI22
I3
sI23
I2
sI24
I2
sI25
I1
sI27
I1
sI31
I1
sI32
I3
sI34
I1
sI36
I3
sI39
I1
sI45
I1
sI47
I4
sI48
I1
sI50
I2
sI58
I1
sI61
I2
sI62
I3
sI65
I1
sI70
I1
sI71
I1
sI74
I1
sI79
I3
sI86
I3
sI95
I4
ssI92
g0
(tRp81
I1
I4
sI2
I1
sI3
I1
sI5
I2
sI7
I1
sI10
I1
sI12
I1
sI13
I1
sI14
I1
sI16
I3
sI17
I3
sI21
I1
sI22
I2
sI25
I5
sI26
I2
sI28
I1
sI29
I2
sI30
I1
sI32
I5
sI34
I1
sI36
I4
sI39
I2
sI43
I1
sI45
I2
sI46
I1
sI47
I3
sI48
I1
sI49
I1
sI50
I4
sI52
I3
sI55
I1
sI57
I1
sI58
I1
sI61
I1
sI62
I2
sI63
I1
sI68
I1
sI73
I1
sI76
I2
sI77
I1
sI78
I2
sI79
I1
sI81
I1
sI82
I1
sI85
I1
sI86
I2
sI94
I1
sI95
I1
sI99
I1
sI100
I1
ssI93
g0
(tRp82
I1
I1
sI12
I1
sI15
I1
sI17
I1
sI50
I1
sI29
I1
ssI94
g0
(tRp83
I1
I7
sI2
I3
sI5
I2
sI6
I3
sI7
I1
sI10
I1
sI11
I4
sI13
I1
sI14
I2
sI16
I7
sI17
I6
sI19
I1
sI21
I6
sI22
I3
sI24
I2
sI25
I6
sI27
I1
sI28
I2
sI29
I3
sI30
I2
sI31
I2
sI32
I7
sI34
I6
sI35
I1
sI36
I9
sI39
I3
sI41
I1
sI43
I3
sI45
I3
sI46
I2
sI47
I7
sI49
I1
sI50
I8
sI52
I4
sI55
I2
sI57
I2
sI58
I2
sI59
I1
sI60
I1
sI61
I1
sI62
I3
sI68
I2
sI69
I2
sI70
I1
sI71
I1
sI74
I1
sI76
I1
sI77
I1
sI78
I1
sI80
I1
sI82
I1
sI85
I2
sI86
I1
sI92
I1
sI99
I1
sI100
I2
ssI95
g0
(tRp84
I1
I16
sI2
I9
sI3
I3
sI4
I1
sI5
I5
sI6
I14
sI7
I4
sI9
I4
sI10
I13
sI11
I12
sI12
I1
sI13
I1
sI14
I2
sI16
I6
sI17
I12
sI18
I1
sI19
I1
sI20
I2
sI21
I4
sI22
I7
sI23
I3
sI25
I7
sI26
I1
sI27
I1
sI28
I1
sI29
I2
sI30
I1
sI31
I5
sI32
I15
sI34
I6
sI36
I9
sI39
I9
sI40
I1
sI45
I2
sI47
I18
sI48
I3
sI50
I11
sI52
I2
sI54
I2
sI58
I2
sI61
I3
sI62
I10
sI63
I1
sI70
I2
sI71
I1
sI73
I1
sI74
I2
sI76
I1
sI79
I4
sI81
I1
sI82
I1
sI86
I3
sI89
I4
sI92
I1
sI100
I3
ssI97
g0
(tRp85
I2
I1
sI6
I1
sI14
I2
sI16
I2
sI17
I1
sI18
I1
sI25
I1
sI26
I1
sI28
I1
sI29
I2
sI30
I1
sI32
I1
sI34
I2
sI35
I1
sI36
I2
sI39
I1
sI41
I1
sI45
I1
sI47
I4
sI50
I2
sI58
I1
sI68
I1
sI70
I1
sI72
I1
sI81
I1
sI85
I2
ssI99
g0
(tRp86
I1
I2
sI2
I1
sI6
I1
sI13
I1
sI16
I1
sI21
I1
sI22
I1
sI25
I2
sI28
I1
sI30
I1
sI32
I1
sI36
I2
sI39
I2
sI43
I1
sI45
I2
sI46
I1
sI47
I1
sI49
I1
sI50
I2
sI52
I1
sI55
I1
sI57
I1
sI68
I1
sI76
I1
sI77
I1
sI78
I1
sI85
I2
sI86
I1
sI92
I1
sI94
I1
ssI100
g0
(tRp87
I1
I5
sI2
I1
sI3
I1
sI5
I2
sI6
I6
sI8
I1
sI11
I4
sI14
I1
sI16
I4
sI17
I4
sI21
I4
sI22
I1
sI23
I1
sI25
I6
sI26
I1
sI28
I1
sI29
I1
sI30
I1
sI31
I2
sI32
I6
sI34
I3
sI35
I1
sI36
I5
sI40
I1
sI43
I1
sI47
I3
sI50
I5
sI52
I4
sI55
I1
sI58
I2
sI61
I1
sI62
I4
sI63
I1
sI70
I1
sI76
I1
sI79
I2
sI81
I1
sI82
I2
sI85
I2
sI86
I3
sI92
I1
sI94
I2
sI95
I3
ss.