(dp0
I2
(dp1
I515
F4.0
sI261
F4.0
sI265
F5.0
sI10
F4.0
sI527
F4.0
sI273
F4.0
sI661
F4.0
sI150
F5.0
sI537
F4.0
sI153
F4.0
sI39
F5.0
sI296
F4.0
sI47
F4.0
sI50
F4.0
sI222
F5.0
sI314
F4.0
sI266
F5.0
sI454
F4.0
sI585
F5.0
sI589
F5.0
sI590
F5.0
sI592
F5.0
sI468
F4.0
sI349
F4.0
sI350
F4.0
sI480
F4.0
sI720
F4.0
sI17
F5.0
sI551
F5.0
sI110
F4.0
sI509
F4.0
sI500
F4.0
sI508
F4.0
sI253
F4.0
ssI3
(dp2
I736
F3.5
sI356
F5.0
sI296
F4.5
sI778
F4.0
sI110
F4.0
sI247
F3.5
sI318
F5.0
ssI4
(dp3
I260
F5.0
sI903
F5.0
sI10
F4.0
sI141
F5.0
sI910
F4.0
sI913
F5.0
sI919
F5.0
sI153
F4.0
sI541
F5.0
sI289
F4.0
sI34
F5.0
sI296
F5.0
sI434
F4.0
sI440
F4.0
sI442
F4.0
sI588
F5.0
sI589
F5.0
sI464
F4.0
sI594
F5.0
sI596
F5.0
sI858
F5.0
sI349
F5.0
sI480
F5.0
sI610
F4.0
sI356
F5.0
sI357
F5.0
sI616
F5.0
sI364
F5.0
sI367
F4.0
sI112
F5.0
ssI5
(dp4
I3
F4.0
sI356
F4.0
sI903
F3.5
sI231
F3.5
sI104
F4.0
sI588
F3.5
sI586
F4.0
sI39
F4.0
sI364
F4.0
sI141
F4.0
sI367
F4.0
sI440
F4.0
sI595
F4.0
sI500
F4.5
sI277
F4.5
sI150
F4.0
sI919
F4.0
sI344
F3.5
sI377
F4.0
sI788
F3.5
sI597
F5.0
ssI6
(dp5
I903
F4.0
sI596
F4.0
sI293
F5.0
sI111
F4.0
ssI7
(dp6
I480
F4.0
sI720
F5.0
sI34
F4.0
sI260
F5.0
sI551
F4.0
sI40
F4.0
sI745
F5.0
sI924
F4.0
sI588
F4.0
sI141
F4.0
sI110
F5.0
sI112
F4.0
sI594
F4.0
sI590
F4.0
sI534
F4.0
sI151
F4.0
sI380
F4.0
sI541
F4.0
sI318
F5.0
sI671
F4.0
ssI8
(dp7
I32
F5.0
sI260
F3.5
sI805
F3.5
sI593
F4.5
sI296
F4.0
sI457
F4.5
sI589
F4.0
sI110
F4.0
sI47
F5.0
sI520
F3.5
sI50
F5.0
sI628
F4.0
sI356
F4.0
sI858
F5.0
sI527
F5.0
sI318
F5.0
sI543
F5.0
ssI9
(dp8
I608
F5.0
sI1
F4.0
sI515
F4.0
sI36
F5.0
sI17
F4.0
sI593
F4.0
sI527
F5.0
sI497
F4.0
sI534
F5.0
sI318
F4.0
ssI10
(dp9
I152
F4.0
sI345
F4.0
sI50
F5.0
sI318
F4.0
sI735
F4.0
ssI11
(dp10
I296
F5.0
sI778
F4.5
sI785
F3.5
sI50
F5.0
sI923
F5.0
sI126
F4.0
ssI12
(dp11
I736
F4.0
ssI13
(dp12
I1
F5.0
sI356
F5.0
sI296
F3.5
sI362
F4.5
sI524
F3.5
sI110
F4.0
sI527
F4.0
sI914
F4.0
sI531
F4.0
sI277
F4.0
sI919
F3.5
sI590
F4.0
sI318
F4.5
ssI15
(dp13
I750
F4.0
sI555
F4.0
sI260
F5.0
sI5
F4.5
sI6
F4.0
sI903
F5.0
sI520
F3.5
sI556
F3.5
sI778
F4.0
sI908
F5.0
sI909
F4.0
sI527
F4.0
sI16
F3.5
sI145
F3.5
sI904
F5.0
sI431
F4.0
sI149
F5.0
sI920
F3.5
sI47
F5.0
sI924
F5.0
sI541
F5.0
sI32
F4.0
sI913
F4.0
sI162
F4.0
sI803
F4.5
sI164
F4.0
sI293
F5.0
sI994
F4.0
sI296
F5.0
sI549
F5.0
sI300
F4.0
sI306
F5.0
sI175
F4.0
sI176
F4.0
sI648
F4.0
sI50
F5.0
sI307
F4.0
sI308
F4.0
sI441
F4.0
sI800
F5.0
sI457
F5.0
sI923
F5.0
sI589
F4.0
sI592
F4.0
sI593
F5.0
sI82
F5.0
sI851
F4.0
sI215
F4.5
sI899
F5.0
sI804
F3.5
sI858
F5.0
sI911
F4.0
sI733
F3.5
sI223
F4.0
sI608
F5.0
sI912
F5.0
sI866
F4.0
sI101
F4.0
sI231
F3.5
sI232
F4.0
sI233
F4.0
sI357
F3.5
sI235
F4.0
sI364
F4.0
sI237
F3.5
sI494
F4.0
sI111
F5.0
sI370
F3.5
sI373
F3.5
sI246
F5.0
sI377
F4.0
sI123
F4.0
sI380
F4.0
sI125
F3.5
sI382
F3.5
sI21
F4.5
ssI16
(dp14
I337
F4.0
sI50
F4.5
sI750
F4.0
sI318
F4.0
sI527
F4.0
ssI17
(dp15
I260
F3.5
sI6
F4.5
sI903
F5.0
sI904
F4.5
sI778
F4.5
sI908
F5.0
sI910
F3.5
sI527
F4.0
sI912
F4.5
sI913
F5.0
sI25
F4.5
sI922
F5.0
sI431
F4.5
sI924
F4.5
sI29
F4.5
sI32
F4.5
sI930
F3.5
sI923
F4.5
sI36
F4.5
sI293
F4.0
sI296
F5.0
sI170
F4.0
sI555
F4.0
sI172
F3.5
sI942
F3.5
sI47
F5.0
sI50
F5.0
sI307
F3.5
sI318
F5.0
sI928
F4.5
sI194
F4.0
sI965
F3.5
sI198
F5.0
sI714
F4.5
sI593
F4.5
sI931
F4.5
sI858
F5.0
sI348
F3.5
sI608
F3.5
sI866
F4.5
sI235
F5.0
sI492
F5.0
sI111
F5.0
sI680
F4.5
sI541
F5.0
ssI18
(dp16
I32
F5.0
sI608
F4.0
sI802
F4.0
sI100
F4.0
sI708
F4.0
sI6
F4.0
sI785
F4.0
sI141
F4.0
sI653
F4.0
sI17
F4.0
sI786
F4.0
sI628
F4.0
sI85
F4.0
sI86
F4.0
sI849
F4.0
sI25
F5.0
sI733
F4.0
sI62
F4.0
sI805
F4.0
ssI19
(dp17
I515
F5.0
sI14
F5.0
sI527
F4.0
sI16
F5.0
sI531
F5.0
sI534
F5.0
sI535
F4.0
sI541
F4.0
sI34
F4.0
sI547
F4.0
sI551
F4.0
sI47
F5.0
sI50
F4.0
sI70
F4.0
sI592
F4.0
sI594
F4.0
sI595
F5.0
sI596
F5.0
sI599
F4.0
sI608
F5.0
sI97
F4.0
sI610
F4.0
sI111
F5.0
sI145
F4.0
sI661
F4.0
sI663
F4.0
sI154
F4.0
sI159
F4.0
sI160
F4.0
sI162
F5.0
sI176
F4.0
sI968
F5.0
sI969
F5.0
sI194
F4.0
sI223
F4.0
sI229
F4.0
sI230
F5.0
sI750
F5.0
sI246
F4.0
sI247
F4.0
sI260
F4.0
sI261
F4.0
sI262
F5.0
sI288
F5.0
sI292
F4.0
sI293
F4.0
sI296
F5.0
sI306
F5.0
sI307
F5.0
sI308
F5.0
sI318
F4.0
sI326
F5.0
sI328
F4.0
sI334
F4.0
sI339
F4.0
sI858
F5.0
sI348
F4.0
sI356
F5.0
sI357
F5.0
sI361
F4.0
sI373
F4.0
sI898
F5.0
sI903
F4.0
sI904
F5.0
sI908
F4.0
sI911
F5.0
sI913
F5.0
sI915
F4.0
sI916
F5.0
sI917
F4.0
sI920
F4.0
sI923
F5.0
sI924
F4.0
sI928
F5.0
sI929
F4.0
sI930
F4.0
sI940
F4.0
sI429
F4.0
sI431
F4.0
sI950
F4.0
sI951
F5.0
sI953
F5.0
sI954
F4.0
sI955
F4.0
sI965
F4.0
sI966
F4.0
sI456
F4.0
sI457
F4.0
sI674
F4.0
sI464
F4.0
sI465
F5.0
sI468
F4.0
sI982
F4.0
sI480
F4.0
sI493
F4.0
sI501
F5.0
sI509
F4.0
ssI20
(dp18
I588
F3.5
sI1
F3.5
sI34
F3.5
sI780
F5.0
sI380
F4.0
sI107
F3.5
sI364
F3.5
sI720
F5.0
sI750
F4.0
sI592
F4.0
sI497
F5.0
sI595
F4.0
sI597
F4.0
sI905
F3.5
sI457
F4.5
sI745
F5.0
sI153
F4.0
sI316
F3.5
sI736
F3.5
sI318
F4.5
sI671
F4.0
ssI21
(dp19
I151
F4.0
sI527
F5.0
sI912
F5.0
sI913
F4.0
sI914
F5.0
sI918
F4.0
sI919
F4.0
sI920
F4.0
sI921
F4.0
sI923
F5.0
sI924
F4.0
sI32
F4.0
sI34
F4.0
sI47
F4.0
sI953
F5.0
sI954
F4.0
sI969
F5.0
sI589
F5.0
sI590
F4.0
sI593
F4.0
sI858
F4.0
sI356
F4.0
sI750
F5.0
sI112
F4.0
sI377
F4.0
sI509
F4.0
ssI22
(dp20
I32
F4.5
sI480
F4.5
sI163
F4.5
sI260
F4.0
sI551
F5.0
sI296
F5.0
sI457
F4.5
sI648
F5.0
sI555
F4.0
sI589
F5.0
sI47
F3.5
sI592
F4.5
sI593
F4.5
sI356
F3.5
sI858
F4.0
sI541
F4.5
sI253
F4.5
ssI23
(dp21
I6
F3.5
sI11
F3.5
sI527
F3.5
sI16
F4.0
sI532
F3.5
sI535
F4.5
sI24
F3.5
sI32
F4.0
sI34
F3.5
sI47
F4.5
sI50
F4.0
sI58
F3.5
sI62
F4.0
sI586
F3.5
sI588
F4.0
sI589
F3.5
sI592
F3.5
sI593
F4.5
sI595
F4.5
sI89
F4.0
sI605
F4.0
sI608
F4.5
sI104
F3.5
sI110
F3.5
sI111
F5.0
sI648
F4.5
sI150
F3.5
sI154
F4.0
sI668
F4.5
sI670
F4.5
sI969
F3.5
sI185
F3.5
sI805
F3.5
sI224
F4.0
sI745
F4.5
sI235
F4.0
sI236
F4.5
sI750
F4.5
sI246
F4.5
sI247
F4.0
sI252
F4.0
sI253
F3.5
sI260
F4.5
sI262
F4.0
sI265
F3.5
sI778
F4.5
sI780
F3.5
sI802
F3.5
sI293
F4.0
sI296
F4.5
sI300
F4.0
sI306
F3.5
sI316
F3.5
sI318
F5.0
sI319
F4.5
sI841
F4.0
sI337
F4.5
sI345
F4.0
sI858
F5.0
sI356
F4.5
sI380
F4.0
sI898
F4.5
sI899
F4.5
sI903
F3.5
sI904
F4.5
sI905
F4.0
sI908
F5.0
sI909
F3.5
sI910
F4.5
sI911
F4.0
sI912
F5.0
sI913
F4.0
sI920
F3.5
sI922
F4.5
sI923
F5.0
sI924
F3.5
sI926
F4.0
sI928
F4.5
sI930
F4.0
sI931
F4.5
sI933
F3.5
sI425
F3.5
sI942
F4.0
sI431
F3.5
sI948
F3.5
sI949
F3.5
sI952
F3.5
sI953
F4.5
sI442
F3.5
sI955
F3.5
sI965
F3.5
sI457
F3.5
sI971
F3.5
sI465
F3.5
sI471
F3.5
sI480
F3.5
sI492
F4.5
sI954
F5.0
sI497
F4.5
sI508
F4.5
sI509
F4.5
ssI24
(dp22
I356
F4.0
sI165
F4.0
sI6
F5.0
sI296
F5.0
sI457
F4.0
sI648
F4.0
sI780
F4.0
sI590
F4.0
sI81
F4.0
sI786
F4.0
sI380
F4.0
ssI25
(dp23
I32
F4.0
sI802
F5.0
sI260
F4.0
sI104
F4.0
sI778
F4.0
sI780
F4.0
ssI26
(dp24
I32
F4.5
sI1
F5.0
sI356
F4.5
sI69
F4.5
sI296
F3.5
sI457
F3.5
sI778
F4.5
sI555
F3.5
sI780
F3.5
sI589
F4.0
sI47
F4.5
sI593
F3.5
sI50
F4.5
sI608
F3.5
sI153
F3.5
sI858
F4.0
sI318
F4.0
ssI27
(dp25
I296
F4.0
sI73
F5.0
sI527
F5.0
sI593
F4.0
sI50
F4.0
sI111
F4.0
ssI28
(dp26
I898
F5.0
sI899
F5.0
sI933
F4.0
sI902
F5.0
sI904
F4.0
sI908
F5.0
sI909
F4.0
sI110
F4.0
sI913
F4.0
sI21
F5.0
sI920
F5.0
sI345
F5.0
sI58
F5.0
sI924
F4.0
sI926
F5.0
ssI29
(dp27
I778
F5.0
ssI30
(dp28
I1
F4.0
sI515
F5.0
sI517
F4.0
sI6
F4.0
sI8
F4.0
sI11
F4.0
sI14
F4.0
sI527
F5.0
sI16
F5.0
sI21
F5.0
sI534
F4.0
sI23
F4.0
sI25
F4.0
sI538
F4.0
sI540
F4.0
sI541
F4.0
sI34
F4.0
sI553
F4.0
sI555
F5.0
sI556
F4.0
sI47
F4.0
sI50
F5.0
sI52
F5.0
sI70
F4.0
sI586
F4.0
sI588
F5.0
sI589
F4.0
sI590
F5.0
sI592
F4.0
sI593
F4.0
sI595
F5.0
sI596
F4.0
sI597
F4.0
sI608
F5.0
sI100
F4.0
sI924
F4.0
sI110
F5.0
sI111
F4.0
sI628
F5.0
sI647
F5.0
sI535
F4.0
sI141
F4.0
sI150
F5.0
sI161
F5.0
sI165
F4.0
sI170
F4.0
sI969
F4.0
sI971
F4.0
sI733
F4.0
sI224
F4.0
sI235
F4.0
sI253
F4.0
sI767
F4.0
sI260
F4.0
sI261
F4.0
sI780
F4.0
sI272
F4.0
sI281
F4.0
sI282
F5.0
sI800
F4.0
sI805
F5.0
sI296
F5.0
sI300
F5.0
sI317
F4.0
sI318
F5.0
sI832
F4.0
sI736
F4.0
sI337
F5.0
sI858
F5.0
sI348
F5.0
sI349
F5.0
sI350
F4.0
sI356
F5.0
sI357
F4.0
sI368
F4.0
sI371
F4.0
sI377
F4.0
sI380
F4.0
sI382
F4.0
sI898
F5.0
sI899
F4.0
sI903
F4.0
sI904
F4.0
sI908
F4.0
sI912
F5.0
sI913
F5.0
sI914
F4.0
sI919
F4.0
sI920
F5.0
sI921
F5.0
sI410
F4.0
sI923
F5.0
sI412
F5.0
sI922
F5.0
sI928
F5.0
sI424
F4.0
sI425
F4.0
sI428
F5.0
sI434
F4.0
sI947
F4.0
sI950
F4.0
sI440
F4.0
sI953
F4.0
sI954
F4.0
sI445
F4.0
sI451
F4.0
sI454
F5.0
sI457
F5.0
sI459
F4.0
sI463
F4.0
sI471
F4.0
sI472
F4.0
sI474
F5.0
sI477
F4.0
sI480
F4.0
sI485
F4.0
sI492
F4.0
sI500
F4.0
sI507
F4.0
sI508
F5.0
sI509
F5.0
ssI31
(dp29
I32
F4.5
sI260
F4.0
sI296
F4.5
sI778
F3.5
sI111
F4.5
sI904
F4.0
sI50
F3.5
sI372
F3.5
sI527
F5.0
sI858
F4.5
sI379
F4.0
sI541
F4.0
sI318
F4.0
sI31
F4.0
ssI32
(dp30
I2
F4.0
sI261
F4.0
sI150
F5.0
sI153
F4.0
sI31
F4.0
sI292
F5.0
sI165
F4.0
sI553
F5.0
sI440
F4.0
sI442
F4.0
sI457
F5.0
sI204
F4.0
sI589
F5.0
sI590
F5.0
sI208
F4.0
sI337
F4.0
sI344
F4.0
sI349
F5.0
sI480
F5.0
sI592
F4.0
sI356
F5.0
sI231
F5.0
sI110
F5.0
sI367
F4.0
sI377
F4.0
ssI33
(dp31
I344
F4.0
sI832
F4.0
sI562
F4.0
sI908
F4.0
sI532
F4.0
ssI34
(dp32
I750
F4.0
sI260
F4.0
sI940
F5.0
sI527
F4.0
sI912
F5.0
sI913
F5.0
sI21
F4.0
sI150
F4.0
sI923
F5.0
sI924
F5.0
sI541
F4.0
sI32
F5.0
sI293
F4.0
sI678
F5.0
sI296
F5.0
sI555
F5.0
sI556
F4.0
sI562
F4.0
sI47
F5.0
sI50
F5.0
sI316
F4.0
sI288
F4.0
sI581
F4.0
sI70
F4.0
sI969
F4.0
sI589
F5.0
sI337
F5.0
sI595
F4.0
sI724
F4.0
sI858
F4.0
sI608
F4.0
sI482
F5.0
sI593
F4.0
sI610
F4.0
sI110
F4.0
sI253
F4.0
ssI35
(dp33
I468
F4.0
sI838
F4.0
ssI36
(dp34
I260
F5.0
sI261
F4.0
sI321
F5.0
sI265
F5.0
sI778
F5.0
sI527
F5.0
sI272
F4.0
sI18
F4.0
sI531
F4.0
sI534
F4.0
sI25
F4.0
sI412
F5.0
sI32
F5.0
sI36
F4.0
sI293
F5.0
sI296
F4.0
sI300
F4.0
sI45
F4.0
sI431
F4.0
sI50
F4.0
sI307
F5.0
sI308
F5.0
sI521
F4.0
sI55
F4.0
sI57
F4.0
sI58
F5.0
sI315
F5.0
sI318
F4.0
sI288
F4.0
sI68
F4.0
sI838
F4.0
sI481
F4.0
sI509
F4.0
sI334
F4.0
sI720
F4.0
sI593
F4.0
sI469
F4.0
sI345
F4.0
sI475
F4.0
sI223
F5.0
sI144
F4.0
sI357
F4.0
sI232
F5.0
sI362
F4.0
sI306
F5.0
sI111
F4.0
sI242
F4.0
sI246
F4.0
sI249
F4.0
sI508
F4.0
sI253
F4.0
ssI37
(dp35
I912
F5.0
sI1
F4.0
sI920
F5.0
sI595
F5.0
sI364
F5.0
ssI38
(dp36
I356
F4.5
sI293
F4.5
sI838
F4.5
sI296
F5.0
sI588
F4.0
sI778
F4.0
sI364
F4.0
sI365
F4.5
sI110
F4.0
sI47
F4.0
sI16
F4.5
sI593
F4.5
sI306
F4.5
sI590
F3.5
sI858
F4.5
sI527
F4.5
sI318
F4.5
sI926
F4.5
ssI39
(dp37
I150
F4.0
sI6
F4.0
sI648
F4.0
sI10
F5.0
sI16
F5.0
sI22
F4.0
sI663
F4.0
sI285
F4.0
sI288
F4.0
sI162
F5.0
sI293
F4.0
sI296
F5.0
sI553
F4.0
sI555
F4.0
sI662
F5.0
sI47
F4.0
sI177
F4.0
sI434
F4.0
sI180
F5.0
sI315
F4.0
sI70
F5.0
sI198
F5.0
sI353
F5.0
sI328
F5.0
sI457
F4.0
sI344
F4.0
sI220
F4.0
sI606
F4.0
sI223
F4.0
sI165
F5.0
sI611
F5.0
sI231
F4.0
sI316
F4.0
sI743
F4.0
sI110
F5.0
sI380
F5.0
sI253
F4.0
ssI40
(dp38
I50
F4.5
sI260
F4.5
ssI41
(dp39
I2
F3.5
sI260
F4.0
sI262
F4.5
sI648
F4.0
sI780
F4.0
sI130
F4.5
sI917
F4.0
sI919
F4.0
sI924
F5.0
sI29
F4.0
sI674
F4.0
sI165
F4.0
sI172
F3.5
sI173
F4.0
sI541
F5.0
sI435
F4.0
sI457
F4.0
sI442
F3.5
sI316
F3.5
sI327
F4.0
sI329
F4.0
sI332
F4.0
sI208
F4.0
sI849
F4.0
sI986
F3.5
sI736
F4.0
sI353
F4.0
sI356
F3.5
sI233
F4.0
sI748
F3.5
sI110
F4.0
sI592
F4.0
sI377
F4.5
sI380
F4.0
sI253
F4.0
ssI42
(dp40
I480
F5.0
sI733
F3.5
sI260
F4.5
sI165
F3.5
sI780
F4.5
sI296
F5.0
sI457
F5.0
sI588
F4.0
sI589
F5.0
sI110
F4.0
sI527
F4.5
sI648
F4.0
sI508
F3.5
sI356
F4.5
sI380
F3.5
sI349
F4.0
sI318
F5.0
ssI43
(dp41
I480
F4.0
sI1
F4.0
sI34
F4.0
sI356
F5.0
sI837
F4.0
sI838
F4.0
sI39
F4.0
sI110
F5.0
sI527
F5.0
sI339
F4.0
sI608
F5.0
ssI44
(dp42
I736
F4.0
sI1
F4.0
sI3
F5.0
sI805
F4.0
sI135
F4.0
sI104
F4.0
sI780
F5.0
sI733
F4.0
sI62
F5.0
ssI45
(dp43
I520
F3.5
sI899
F4.0
sI903
F5.0
ssI46
(dp44
I73
F5.0
sI355
F5.0
sI724
F5.0
ssI47
(dp45
I1
F5.0
sI2
F5.0
sI10
F4.0
sI150
F4.0
sI153
F4.0
sI32
F4.0
sI161
F5.0
sI292
F5.0
sI165
F4.0
sI296
F4.0
sI173
F5.0
sI50
F4.0
sI457
F5.0
sI315
F4.0
sI316
F5.0
sI288
F4.0
sI329
F4.0
sI588
F4.0
sI593
F5.0
sI349
F4.0
sI236
F4.0
sI110
F5.0
sI434
F4.0
sI380
F4.0
ssI48
(dp46
I1
F4.0
sI2
F3.5
sI648
F3.5
sI778
F4.5
sI527
F4.5
sI924
F4.5
sI541
F4.0
sI288
F3.5
sI163
F3.5
sI293
F5.0
sI296
F4.5
sI562
F3.5
sI593
F3.5
sI595
F3.5
sI344
F3.5
sI858
F4.0
sI480
F3.5
sI356
F4.0
sI741
F4.0
sI231
F3.5
sI364
F4.0
sI110
F4.0
sI367
F3.5
sI501
F3.5
ssI49
(dp47
I736
F4.0
sI161
F4.0
sI2
F5.0
sI356
F4.0
sI897
F4.0
sI969
F5.0
sI780
F4.0
sI653
F4.0
sI750
F4.0
sI912
F5.0
sI466
F4.0
sI976
F4.0
sI919
F5.0
sI920
F4.0
ssI50
(dp48
I480
F4.0
sI161
F4.0
sI292
F4.0
sI165
F4.0
sI296
F4.0
sI10
F4.0
sI780
F4.0
sI589
F5.0
sI110
F4.0
sI367
F4.0
sI368
F4.0
sI339
F4.0
sI440
F4.0
sI356
F4.0
sI527
F4.0
sI357
F4.0
ssI51
(dp49
I913
F4.0
ssI52
(dp50
I866
F4.0
sI357
F4.5
sI461
F3.5
ssI53
(dp51
I968
F4.0
sI165
F4.0
sI111
F4.0
ssI54
(dp52
I318
F4.5
ssI55
(dp53
I32
F4.0
sI65
F5.0
sI733
F4.0
sI260
F5.0
sI805
F5.0
sI6
F5.0
sI104
F5.0
sI780
F5.0
sI141
F4.0
sI653
F4.0
sI648
F5.0
sI786
F4.0
sI724
F4.0
sI376
F4.0
sI788
F5.0
sI719
F4.0
sI637
F4.0
sI832
F5.0
ssI56
(dp54
I1
F4.0
sI10
F4.0
sI527
F4.0
sI16
F4.0
sI529
F4.0
sI916
F4.0
sI919
F5.0
sI922
F4.0
sI923
F4.0
sI29
F4.0
sI926
F4.0
sI293
F4.0
sI39
F5.0
sI296
F4.0
sI47
F4.0
sI176
F4.0
sI50
F4.0
sI951
F4.0
sI441
F4.0
sI778
F4.0
sI318
F4.0
sI456
F4.0
sI457
F4.0
sI586
F4.0
sI337
F4.0
sI953
F4.0
sI216
F4.0
sI223
F4.0
sI480
F4.0
sI356
F4.0
sI101
F4.0
sI593
F5.0
sI104
F4.0
sI111
F4.0
sI246
F5.0
sI377
F4.0
sI250
F5.0
sI541
F4.0
ssI57
(dp55
I260
F4.0
sI265
F5.0
sI11
F5.0
sI527
F5.0
sI17
F5.0
sI914
F5.0
sI21
F4.0
sI534
F5.0
sI151
F5.0
sI921
F4.0
sI538
F5.0
sI800
F5.0
sI34
F5.0
sI163
F4.0
sI293
F5.0
sI555
F4.0
sI440
F4.0
sI318
F5.0
sI590
F5.0
sI337
F5.0
sI468
F4.0
sI728
F5.0
sI858
F5.0
sI608
F5.0
sI357
F5.0
sI110
F5.0
sI497
F5.0
sI635
F5.0
sI380
F4.0
sI509
F5.0
ssI58
(dp56
I965
F5.0
sI616
F4.0
sI969
F5.0
sI11
F5.0
sI748
F4.0
sI150
F5.0
sI924
F5.0
ssI59
(dp57
I32
F4.5
sI480
F4.5
sI912
F4.0
sI296
F4.0
sI745
F5.0
sI300
F4.5
sI590
F3.5
sI527
F4.5
sI720
F4.5
sI593
F3.5
sI50
F5.0
sI150
F4.0
sI858
F5.0
sI412
F4.0
sI541
F5.0
sI223
F3.5
ssI60
(dp58
I608
F4.0
sI720
F4.0
sI163
F4.0
sI745
F3.5
sI235
F5.0
sI173
F3.5
sI111
F4.5
sI16
F4.5
sI466
F4.0
sI858
F5.0
sI541
F5.0
ssI61
(dp59
I2
F3.5
sI231
F4.0
sI104
F4.0
sI585
F3.5
sI587
F5.0
sI364
F3.5
sI594
F3.5
sI592
F5.0
sI50
F5.0
sI500
F4.0
sI953
F3.5
sI317
F3.5
ssI62
(dp60
I260
F4.0
sI318
F3.5
sI111
F4.0
ssI63
(dp61
I480
F4.5
sI1
F5.0
sI260
F5.0
sI11
F3.5
sI720
F4.0
sI16
F5.0
sI593
F4.5
sI432
F4.0
sI150
F4.0
sI592
F5.0
sI380
F3.5
sI318
F5.0
ssI64
(dp62
I356
F4.0
sI296
F5.0
sI329
F4.0
sI266
F5.0
sI110
F4.0
sI349
F4.0
sI592
F4.0
sI593
F5.0
sI434
F4.0
sI590
F5.0
sI457
F4.0
sI153
F5.0
sI380
F4.0
sI253
F5.0
sI318
F5.0
ssI65
(dp63
I924
F4.0
sI858
F5.0
sI260
F4.0
sI909
F5.0
ssI66
(dp64
I480
F5.0
sI608
F4.0
sI356
F4.0
sI832
F4.0
sI457
F4.0
sI908
F4.0
sI589
F5.0
sI110
F4.0
sI593
F4.0
sI21
F4.0
sI377
F4.0
sI260
F5.0
sI858
F5.0
ssI67
(dp65
I515
F5.0
sI260
F4.0
sI6
F5.0
sI265
F5.0
sI650
F5.0
sI151
F5.0
sI780
F4.0
sI272
F5.0
sI17
F4.0
sI18
F4.0
sI531
F5.0
sI277
F4.0
sI279
F5.0
sI280
F5.0
sI282
F5.0
sI28
F5.0
sI541
F4.0
sI288
F4.0
sI34
F5.0
sI293
F4.0
sI296
F5.0
sI412
F5.0
sI43
F4.0
sI431
F4.0
sI314
F5.0
sI60
F4.0
sI318
F5.0
sI736
F4.0
sI707
F4.0
sI452
F5.0
sI709
F4.0
sI198
F4.0
sI353
F5.0
sI457
F4.0
sI586
F4.0
sI589
F4.0
sI590
F5.0
sI337
F4.0
sI595
F4.0
sI597
F5.0
sI86
F5.0
sI475
F5.0
sI733
F4.0
sI480
F5.0
sI16
F4.0
sI610
F4.0
sI356
F4.0
sI613
F4.0
sI593
F5.0
sI616
F4.0
sI491
F4.0
sI364
F5.0
sI493
F4.0
sI110
F5.0
sI553
F4.0
sI509
F5.0
sI383
F4.0
ssI68
(dp66
I1
F4.0
sI904
F4.0
sI908
F4.0
sI11
F3.5
sI780
F3.5
sI527
F3.5
sI912
F4.0
sI914
F4.0
sI150
F4.0
sI539
F3.5
sI541
F3.5
sI933
F3.5
sI934
F3.5
sI953
F4.0
sI318
F4.0
sI454
F4.0
sI457
F4.0
sI586
F3.5
sI587
F4.0
sI590
F3.5
sI592
F3.5
sI480
F4.0
sI356
F4.0
sI500
F4.0
sI380
F4.0
ssI69
(dp67
I1
F5.0
sI2
F3.5
sI5
F5.0
sI262
F4.0
sI527
F5.0
sI19
F4.0
sI919
F4.5
sI410
F3.5
sI34
F4.0
sI934
F5.0
sI39
F4.5
sI296
F3.5
sI48
F4.5
sI318
F5.0
sI586
F4.5
sI587
F5.0
sI595
F4.0
sI597
F4.5
sI344
F4.0
sI356
F5.0
sI357
F5.0
sI231
F4.0
sI104
F4.0
sI364
F5.0
sI500
F3.5
sI374
F3.5
ssI70
(dp68
I1
F5.0
sI3
F5.0
sI5
F5.0
sI135
F4.0
sI780
F4.0
sI141
F5.0
sI17
F4.0
sI786
F5.0
sI788
F5.0
sI661
F5.0
sI25
F5.0
sI26
F5.0
sI667
F5.0
sI849
F5.0
sI799
F4.0
sI32
F4.0
sI653
F5.0
sI802
F5.0
sI36
F4.0
sI805
F5.0
sI832
F5.0
sI839
F5.0
sI52
F4.0
sI694
F5.0
sI58
F5.0
sI61
F4.0
sI62
F5.0
sI63
F4.0
sI704
F4.0
sI736
F4.0
sI707
F5.0
sI708
F5.0
sI880
F4.0
sI711
F4.0
sI76
F4.0
sI79
F4.0
sI81
F4.0
sI82
F4.0
sI852
F5.0
sI86
F4.0
sI719
F4.0
sI92
F5.0
sI733
F5.0
sI95
F5.0
sI608
F5.0
sI609
F5.0
sI100
F4.0
sI613
F5.0
sI785
F5.0
sI745
F4.0
sI107
F5.0
sI112
F5.0
sI628
F5.0
sI631
F5.0
sI376
F4.0
sI762
F4.0
sI891
F4.0
ssI71
(dp69
I908
F5.0
sI581
F4.0
ssI72
(dp70
I608
F4.0
sI1
F3.5
sI356
F4.0
sI296
F4.0
sI778
F4.0
sI110
F3.5
sI47
F3.5
sI912
F3.5
sI593
F3.5
sI50
F4.0
sI150
F3.5
sI858
F4.5
sI527
F4.0
sI924
F4.0
sI541
F4.0
sI318
F4.0
ssI73
(dp71
I1
F5.0
sI514
F3.5
sI6
F4.5
sI520
F4.0
sI940
F4.5
sI527
F5.0
sI16
F4.0
sI21
F3.5
sI25
F4.5
sI541
F4.5
sI31
F3.5
sI32
F5.0
sI36
F4.5
sI39
F4.0
sI553
F4.0
sI555
F4.0
sI47
F5.0
sI50
F5.0
sI778
F5.0
sI63
F3.5
sI69
F4.0
sI70
F3.5
sI586
F3.5
sI588
F5.0
sI590
F4.5
sI592
F4.0
sI593
F4.5
sI594
F3.5
sI595
F4.5
sI596
F3.5
sI608
F4.0
sI101
F3.5
sI110
F4.0
sI111
F3.5
sI112
F3.5
sI628
F4.5
sI147
F4.5
sI150
F3.5
sI163
F3.5
sI165
F3.5
sI172
F3.5
sI175
F4.5
sI968
F4.0
sI180
F3.5
sI198
F4.0
sI215
F5.0
sI216
F4.0
sI735
F4.0
sI741
F4.0
sI231
F3.5
sI233
F4.0
sI551
F3.5
sI748
F3.5
sI246
F4.5
sI247
F4.0
sI253
F3.5
sI260
F4.5
sI266
F4.0
sI780
F3.5
sI785
F3.5
sI799
F3.5
sI288
F3.5
sI293
F5.0
sI296
F5.0
sI300
F4.0
sI223
F4.5
sI318
F5.0
sI319
F4.0
sI322
F4.5
sI337
F3.5
sI858
F5.0
sI352
F3.5
sI353
F4.0
sI356
F5.0
sI364
F5.0
sI745
F4.0
sI575
F3.5
sI235
F4.0
sI904
F4.5
sI919
F4.0
sI909
F4.0
sI407
F3.5
sI428
F4.0
sI431
F3.5
sI441
F3.5
sI442
F3.5
sI456
F4.0
sI457
F4.0
sI471
F4.0
sI474
F3.5
sI480
F4.0
sI481
F3.5
sI482
F4.0
sI849
F3.5
sI493
F4.0
sI497
F3.5
sI500
F3.5
sI507
F3.5
sI508
F4.0
ssI74
(dp72
I912
F5.0
sI260
F5.0
sI104
F4.0
sI356
F4.0
sI10
F5.0
sI110
F5.0
sI527
F5.0
sI592
F5.0
sI17
F4.0
sI153
F4.0
ssI75
(dp73
I32
F4.0
sI161
F4.0
sI955
F4.0
sI260
F4.5
sI933
F4.0
sI353
F4.5
sI904
F4.0
sI908
F4.5
sI589
F4.0
sI527
F4.0
sI953
F4.0
sI708
F4.0
sI377
F4.0
sI356
F4.0
sI923
F4.5
sI541
F4.0
sI253
F4.5
sI318
F4.0
ssI76
(dp74
I954
F4.0
sI915
F4.0
sI45
F5.0
ssI77
(dp75
I1
F4.0
sI260
F4.0
sI6
F3.5
sI780
F3.5
sI750
F4.5
sI919
F4.5
sI111
F4.0
sI924
F3.5
sI32
F4.0
sI34
F3.5
sI293
F4.0
sI551
F4.5
sI296
F3.5
sI47
F4.0
sI316
F4.0
sI318
F4.0
sI288
F3.5
sI70
F3.5
sI588
F3.5
sI76
F3.5
sI589
F4.0
sI592
F3.5
sI595
F3.5
sI349
F3.5
sI223
F4.5
sI353
F4.0
sI356
F3.5
sI741
F4.0
sI110
F3.5
sI367
F3.5
sI62
F3.5
ssI78
(dp76
I2
F3.5
sI260
F5.0
sI648
F5.0
sI10
F5.0
sI780
F4.0
sI141
F4.0
sI16
F5.0
sI788
F3.5
sI150
F3.5
sI919
F3.5
sI540
F4.0
sI32
F5.0
sI34
F3.5
sI39
F5.0
sI296
F4.5
sI172
F5.0
sI47
F4.0
sI50
F5.0
sI185
F4.5
sI316
F4.0
sI778
F4.5
sI318
F5.0
sI193
F5.0
sI329
F5.0
sI588
F3.5
sI589
F5.0
sI593
F4.5
sI736
F4.5
sI345
F4.5
sI858
F4.5
sI349
F4.5
sI223
F4.5
sI480
F3.5
sI356
F5.0
sI364
F3.5
sI111
F3.5
sI500
F4.0
sI377
F4.5
sI508
F4.0
sI253
F5.0
ssI79
(dp77
I356
F4.0
ssI80
(dp78
I32
F5.0
sI112
F4.0
sI800
F5.0
sI805
F4.0
sI6
F4.0
sI7
F4.0
sI616
F4.0
sI73
F5.0
sI778
F5.0
sI780
F4.0
sI45
F4.0
sI783
F5.0
sI16
F5.0
sI21
F4.0
sI745
F5.0
sI25
F4.0
sI671
F4.0
sI156
F5.0
sI608
F5.0
sI661
F4.0
ssI81
(dp79
I899
F3.5
sI549
F4.5
sI903
F4.0
sI872
F5.0
sI924
F4.0
sI750
F4.0
sI495
F3.5
sI904
F4.0
sI306
F4.0
sI308
F3.5
sI910
F5.0
sI154
F4.0
sI111
F4.0
sI668
F5.0
sI922
F5.0
ssI82
(dp80
I588
F4.0
sI34
F5.0
sI356
F5.0
sI39
F5.0
sI296
F5.0
sI364
F4.0
sI266
F4.0
sI231
F4.0
sI300
F4.0
sI110
F5.0
sI47
F5.0
sI593
F4.0
sI50
F4.0
sI339
F4.0
sI590
F4.0
sI150
F4.0
sI595
F5.0
sI253
F5.0
sI318
F5.0
ssI83
(dp81
I514
F4.0
sI6
F5.0
sI904
F4.5
sI266
F5.0
sI908
F4.5
sI141
F4.0
sI272
F4.5
sI532
F3.5
sI150
F5.0
sI663
F5.0
sI923
F4.5
sI799
F3.5
sI39
F4.0
sI50
F5.0
sI441
F4.0
sI778
F4.0
sI480
F3.5
sI69
F3.5
sI205
F4.0
sI608
F4.5
sI351
F3.5
sI224
F4.0
sI356
F4.0
sI101
F3.5
sI235
F4.5
sI750
F5.0
sI370
F4.0
ssI84
(dp82
I296
F4.0
sI1
F3.5
sI260
F4.0
sI110
F4.0
ssI85
(dp83
I256
F4.0
sI2
F5.0
sI648
F5.0
sI10
F5.0
sI21
F4.0
sI153
F4.0
sI410
F4.0
sI543
F4.0
sI288
F4.0
sI161
F4.0
sI292
F4.0
sI165
F4.0
sI296
F5.0
sI553
F4.0
sI173
F4.0
sI733
F5.0
sI432
F4.0
sI457
F5.0
sI442
F4.0
sI315
F4.0
sI316
F5.0
sI317
F4.0
sI318
F5.0
sI329
F5.0
sI333
F4.0
sI589
F5.0
sI592
F4.0
sI593
F4.0
sI597
F4.0
sI344
F4.0
sI548
F4.0
sI349
F5.0
sI293
F5.0
sI480
F5.0
sI227
F4.0
sI356
F4.0
sI231
F4.0
sI616
F4.0
sI234
F4.0
sI110
F5.0
sI367
F4.0
sI368
F4.0
sI500
F4.0
sI377
F5.0
sI380
F5.0
sI255
F5.0
ssI86
(dp84
I515
F5.0
sI14
F4.0
sI527
F5.0
sI17
F5.0
sI18
F5.0
sI534
F4.0
sI535
F5.0
sI26
F4.0
sI28
F4.0
sI29
F4.0
sI30
F5.0
sI32
F5.0
sI35
F4.0
sI36
F4.0
sI550
F4.0
sI39
F4.0
sI41
F4.0
sI555
F4.0
sI47
F5.0
sI58
F4.0
sI68
F4.0
sI72
F4.0
sI585
F5.0
sI81
F5.0
sI594
F4.0
sI596
F4.0
sI85
F4.0
sI608
F5.0
sI97
F4.0
sI116
F4.0
sI633
F5.0
sI141
F4.0
sI147
F5.0
sI150
F4.0
sI151
F4.0
sI665
F4.0
sI154
F4.0
sI538
F5.0
sI671
F4.0
sI171
F4.0
sI541
F4.0
sI178
F5.0
sI194
F4.0
sI203
F4.0
sI720
F4.0
sI213
F4.0
sI728
F4.0
sI218
F4.0
sI223
F5.0
sI229
F4.0
sI232
F4.0
sI551
F4.0
sI242
F4.0
sI247
F5.0
sI249
F4.0
sI253
F4.0
sI254
F4.0
sI260
F5.0
sI265
F4.0
sI778
F4.0
sI269
F4.0
sI272
F4.0
sI290
F5.0
sI296
F5.0
sI299
F5.0
sI300
F4.0
sI306
F5.0
sI307
F5.0
sI308
F5.0
sI318
F5.0
sI319
F5.0
sI329
F5.0
sI337
F4.0
sI342
F5.0
sI345
F5.0
sI357
F5.0
sI364
F4.0
sI365
F4.0
sI369
F4.0
sI235
F4.0
sI435
F4.0
sI444
F4.0
sI461
F4.0
sI471
F4.0
sI475
F4.0
sI766
F5.0
sI482
F4.0
sI593
F5.0
sI497
F4.0
sI501
F5.0
sI509
F5.0
ssI87
(dp85
I608
F5.0
sI260
F4.0
sI293
F5.0
sI104
F4.0
sI141
F4.0
sI494
F4.0
sI785
F4.0
sI52
F4.0
sI728
F5.0
sI25
F4.0
ssI88
(dp86
I2
F3.5
sI260
F4.0
sI261
F3.5
sI7
F4.0
sI648
F3.5
sI778
F4.5
sI11
F3.5
sI780
F3.5
sI141
F4.5
sI527
F4.0
sI913
F4.0
sI914
F4.0
sI21
F3.5
sI150
F4.0
sI919
F4.0
sI539
F3.5
sI924
F4.0
sI541
F4.5
sI36
F4.0
sI551
F4.5
sI296
F3.5
sI47
F4.0
sI318
F4.0
sI736
F3.5
sI708
F3.5
sI337
F3.5
sI594
F4.0
sI339
F4.0
sI596
F4.0
sI223
F4.5
sI608
F3.5
sI353
F4.0
sI356
F4.0
sI357
F5.0
sI364
F4.0
sI497
F4.0
sI595
F3.5
sI62
F3.5
sI508
F4.0
sI509
F5.0
ssI89
(dp87
I480
F5.0
sI1
F5.0
sI260
F5.0
sI165
F4.0
sI588
F4.5
sI231
F5.0
sI296
F5.0
sI428
F4.0
sI107
F4.0
sI364
F5.0
sI589
F4.0
sI110
F5.0
sI303
F4.0
sI648
F4.0
sI500
F5.0
sI590
F5.0
sI344
F5.0
sI316
F4.0
sI318
F5.0
sI780
F4.0
ssI90
(dp88
I32
F4.0
sI1
F4.0
sI802
F4.0
sI36
F4.0
sI837
F4.0
sI6
F4.0
sI648
F4.0
sI778
F4.0
sI866
F4.0
sI733
F4.0
sI81
F4.0
sI260
F4.0
sI986
F4.0
sI832
F4.0
sI29
F5.0
sI608
F5.0
sI800
F5.0
ssI91
(dp89
I1
F5.0
sI747
F3.5
sI260
F5.0
sI231
F4.5
sI104
F4.0
sI588
F4.5
sI267
F3.5
sI12
F3.5
sI466
F5.0
sI110
F5.0
sI527
F5.0
sI370
F4.5
sI19
F4.0
sI589
F5.0
sI23
F3.5
sI216
F4.0
sI356
F5.0
sI380
F4.5
sI318
F5.0
ssI92
(dp90
I1
F5.0
sI648
F5.0
sI778
F5.0
sI11
F4.0
sI141
F4.0
sI527
F4.0
sI21
F5.0
sI32
F5.0
sI161
F5.0
sI34
F5.0
sI163
F5.0
sI293
F4.0
sI296
F4.0
sI553
F5.0
sI555
F5.0
sI300
F4.0
sI45
F4.0
sI47
F5.0
sI368
F4.0
sI50
F5.0
sI318
F5.0
sI319
F4.0
sI608
F5.0
sI457
F4.0
sI204
F4.0
sI589
F5.0
sI590
F4.0
sI595
F5.0
sI471
F4.0
sI474
F4.0
sI223
F5.0
sI480
F4.0
sI356
F4.0
sI235
F4.0
sI110
F5.0
sI112
F4.0
sI497
F4.0
sI247
F5.0
sI380
F4.0
ssI93
(dp91
I1
F4.0
sI898
F5.0
sI260
F4.0
sI648
F3.5
sI265
F3.5
sI266
F3.5
sI11
F3.5
sI908
F4.0
sI910
F3.5
sI912
F4.5
sI17
F4.0
sI914
F3.5
sI21
F5.0
sI150
F4.0
sI919
F4.0
sI920
F4.0
sI25
F3.5
sI539
F4.0
sI34
F4.0
sI923
F4.0
sI39
F4.0
sI904
F4.5
sI62
F3.5
sI457
F4.0
sI587
F3.5
sI590
F4.5
sI592
F3.5
sI337
F4.0
sI339
F4.5
sI597
F3.5
sI342
F3.5
sI858
F4.5
sI357
F3.5
sI529
F4.0
sI364
F3.5
sI368
F3.5
sI595
F4.0
sI377
F4.5
sI508
F4.0
ssI94
(dp92
I1
F4.0
sI292
F3.5
sI161
F3.5
sI296
F4.0
sI231
F4.0
sI110
F4.5
sI111
F3.5
sI16
F3.5
sI593
F5.0
sI50
F4.0
sI590
F4.0
sI150
F5.0
sI356
F5.0
sI858
F4.5
sI527
F5.0
sI318
F5.0
ssI95
(dp93
I260
F5.0
sI261
F5.0
sI6
F5.0
sI236
F4.0
sI266
F5.0
sI11
F4.0
sI780
F4.0
sI16
F5.0
sI785
F4.0
sI19
F4.0
sI24
F4.0
sI70
F4.0
sI296
F5.0
sI553
F4.0
sI778
F5.0
sI63
F4.0
sI198
F4.0
sI968
F5.0
sI457
F4.0
sI593
F5.0
sI339
F4.0
sI86
F4.0
sI88
F4.0
sI733
F4.0
sI222
F4.0
sI223
F5.0
sI480
F4.0
sI610
F4.0
sI357
F4.0
sI999
F4.0
sI364
F4.0
sI366
F4.0
sI253
F4.0
sI382
F4.0
ssI96
(dp94
I608
F4.0
sI930
F4.5
sI969
F5.0
sI903
F5.0
sI904
F5.0
sI905
F5.0
sI908
F5.0
sI750
F5.0
sI527
F3.5
sI912
F5.0
sI913
F5.0
sI50
F4.0
sI910
F4.5
sI951
F5.0
sI922
F5.0
sI923
F5.0
sI926
F5.0
ssI97
(dp95
I32
F4.5
sI608
F4.0
sI899
F4.5
sI296
F4.0
sI923
F4.0
sI750
F4.0
sI593
F3.5
sI50
F5.0
sI926
F4.0
sI904
F3.5
sI541
F4.0
sI318
F4.5
sI223
F3.5
ssI98
(dp96
I356
F4.5
sI357
F3.5
sI902
F5.0
sI296
F4.5
sI339
F3.5
sI724
F5.0
sI597
F5.0
sI920
F3.5
ssI99
(dp97
I1
F4.0
sI898
F4.0
sI899
F4.0
sI647
F4.0
sI904
F4.0
sI908
F4.0
sI527
F4.0
sI912
F5.0
sI913
F4.0
sI914
F4.0
sI918
F5.0
sI923
F4.0
sI928
F4.0
sI39
F4.0
sI903
F5.0
sI50
F4.0
sI951
F4.0
sI953
F5.0
sI318
F5.0
sI608
F5.0
sI838
F4.0
sI968
F4.0
sI457
F4.0
sI720
F5.0
sI593
F4.0
sI595
F5.0
sI596
F4.0
sI480
F4.0
sI356
F5.0
sI357
F5.0
sI750
F4.0
sI377
F4.0
sI969
F5.0
sI509
F5.0
ssI100
(dp98
I32
F5.0
sI1
F4.0
sI802
F4.0
sI3
F4.0
sI745
F4.0
sI25
F4.0
sI608
F4.0
ssI101
(dp99
I196
F3.5
sI457
F3.5
sI589
F4.5
sI527
F4.5
sI145
F3.5
sI260
F4.0
sI541
F4.0
sI318
F4.0
ssI102
(dp100
I14
F4.0
sI527
F4.0
sI529
F4.0
sI532
F4.0
sI535
F4.0
sI25
F4.0
sI538
F4.0
sI28
F4.0
sI541
F4.0
sI34
F4.0
sI35
F4.0
sI36
F4.0
sI549
F4.0
sI551
F4.0
sI556
F4.0
sI45
F4.0
sI47
F4.0
sI50
F4.0
sI52
F4.0
sI58
F4.0
sI574
F4.0
sI581
F4.0
sI78
F4.0
sI592
F4.0
sI593
F4.0
sI594
F5.0
sI596
F4.0
sI599
F5.0
sI608
F5.0
sI616
F4.0
sI111
F5.0
sI117
F4.0
sI125
F4.0
sI147
F4.0
sI661
F5.0
sI150
F4.0
sI159
F4.0
sI162
F5.0
sI194
F4.0
sI202
F4.0
sI224
F4.0
sI745
F4.0
sI235
F4.0
sI750
F5.0
sI246
F5.0
sI247
F5.0
sI766
F4.0
sI260
F5.0
sI778
F4.0
sI272
F4.0
sI280
F4.0
sI800
F4.0
sI296
F4.0
sI300
F4.0
sI562
F5.0
sI303
F4.0
sI334
F4.0
sI337
F5.0
sI342
F4.0
sI345
F4.0
sI858
F5.0
sI348
F4.0
sI352
F4.0
sI898
F5.0
sI899
F5.0
sI902
F4.0
sI903
F5.0
sI904
F5.0
sI905
F4.0
sI908
F5.0
sI909
F4.0
sI910
F4.0
sI912
F5.0
sI913
F4.0
sI914
F5.0
sI918
F4.0
sI919
F4.0
sI920
F5.0
sI921
F4.0
sI922
F5.0
sI923
F5.0
sI924
F5.0
sI926
F5.0
sI927
F4.0
sI928
F4.0
sI417
F4.0
sI930
F5.0
sI931
F4.0
sI945
F4.0
sI434
F4.0
sI948
F5.0
sI949
F4.0
sI950
F5.0
sI441
F4.0
sI954
F4.0
sI955
F4.0
sI965
F4.0
sI968
F5.0
sI969
F4.0
sI971
F4.0
sI973
F5.0
sI953
F5.0
sI982
F4.0
sI471
F5.0
sI994
F4.0
sI492
F4.0
sI501
F4.0
ssI103
(dp101
I32
F5.0
sI866
F4.5
sI293
F4.5
sI778
F4.5
sI29
F5.0
sI593
F5.0
sI741
F4.5
sI47
F4.5
sI541
F4.5
sI735
F4.0
sI671
F4.0
ssI104
(dp102
I260
F4.0
sI293
F4.5
sI296
F4.0
sI589
F5.0
sI110
F4.5
sI150
F4.0
sI733
F4.5
sI318
F5.0
ssI105
(dp103
I912
F3.5
sI10
F3.5
sI11
F3.5
sI653
F4.0
sI535
F4.0
sI272
F3.5
sI785
F4.0
sI21
F3.5
sI151
F3.5
sI25
F4.0
sI367
F3.5
sI508
F3.5
sI32
F4.0
sI923
F4.0
sI164
F4.0
sI165
F3.5
sI296
F4.0
sI555
F3.5
sI858
F4.5
sI434
F3.5
sI47
F4.0
sI50
F4.5
sI52
F4.0
sI442
F3.5
sI509
F4.0
sI522
F3.5
sI288
F3.5
sI198
F4.0
sI481
F3.5
sI454
F3.5
sI457
F3.5
sI778
F4.0
sI587
F3.5
sI589
F3.5
sI592
F4.0
sI593
F4.0
sI597
F3.5
sI471
F4.0
sI292
F3.5
sI474
F3.5
sI348
F3.5
sI293
F4.0
sI608
F4.0
sI16
F5.0
sI866
F3.5
sI357
F4.0
sI104
F3.5
sI105
F3.5
sI431
F4.0
sI364
F3.5
sI541
F4.0
sI110
F3.5
sI111
F4.0
sI762
F3.5
sI380
F3.5
sI253
F3.5
sI382
F4.0
ssI106
(dp104
I1
F4.0
sI837
F5.0
ssI107
(dp105
I296
F5.0
sI527
F5.0
ssI108
(dp106
I480
F4.0
sI588
F5.0
sI356
F4.0
sI329
F5.0
sI10
F4.0
sI364
F5.0
sI208
F4.0
sI593
F5.0
sI595
F5.0
sI500
F5.0
sI457
F4.0
sI377
F4.0
ssI109
(dp107
I592
F4.0
sI296
F4.5
sI553
F4.5
sI648
F4.0
sI47
F5.0
sI16
F3.5
sI593
F5.0
sI784
F4.0
sI509
F4.5
sI318
F5.0
sI543
F4.5
ssI110
(dp108
I3
F4.0
sI5
F4.0
sI6
F4.0
sI7
F4.0
sI520
F5.0
sI9
F5.0
sI10
F4.0
sI11
F5.0
sI527
F4.0
sI16
F4.0
sI19
F4.0
sI23
F5.0
sI539
F5.0
sI540
F5.0
sI542
F4.0
sI31
F4.0
sI548
F5.0
sI550
F4.0
sI39
F5.0
sI552
F4.0
sI45
F5.0
sI586
F5.0
sI587
F5.0
sI588
F4.0
sI589
F5.0
sI590
F4.0
sI592
F4.0
sI593
F5.0
sI597
F5.0
sI95
F5.0
sI122
F4.0
sI132
F4.0
sI135
F4.0
sI648
F4.0
sI150
F5.0
sI161
F4.0
sI163
F5.0
sI165
F5.0
sI168
F4.0
sI179
F5.0
sI185
F4.0
sI186
F4.0
sI193
F5.0
sI204
F4.0
sI207
F5.0
sI208
F4.0
sI719
F5.0
sI733
F5.0
sI225
F4.0
sI227
F4.0
sI231
F5.0
sI236
F4.0
sI237
F4.0
sI248
F4.0
sI761
F4.0
sI762
F5.0
sI252
F4.0
sI256
F4.0
sI257
F4.0
sI260
F4.0
sI780
F5.0
sI786
F5.0
sI276
F4.0
sI280
F4.0
sI282
F4.0
sI802
F4.0
sI292
F4.0
sI296
F5.0
sI305
F4.0
sI315
F5.0
sI329
F4.0
sI339
F5.0
sI344
F4.0
sI349
F5.0
sI350
F4.0
sI356
F4.0
sI357
F4.0
sI367
F4.0
sI368
F4.0
sI370
F5.0
sI374
F4.0
sI377
F5.0
sI378
F5.0
sI380
F5.0
sI381
F4.0
sI413
F4.0
sI420
F4.0
sI434
F5.0
sI445
F5.0
sI454
F4.0
sI457
F5.0
sI464
F4.0
sI466
F5.0
sI474
F5.0
sI480
F5.0
sI485
F4.0
sI489
F4.0
sI494
F5.0
sI500
F4.0
sI508
F4.0
ssI111
(dp109
I260
F4.0
sI7
F3.5
sI648
F3.5
sI10
F3.5
sI11
F4.0
sI141
F3.5
sI527
F4.0
sI150
F4.0
sI920
F4.0
sI25
F4.0
sI541
F3.5
sI542
F3.5
sI31
F3.5
sI32
F3.5
sI161
F4.0
sI292
F3.5
sI39
F4.5
sI296
F4.5
sI839
F4.0
sI300
F3.5
sI47
F4.0
sI50
F4.0
sI440
F4.0
sI778
F4.0
sI318
F4.0
sI480
F3.5
sI708
F4.0
sI552
F3.5
sI457
F4.0
sI589
F4.5
sI592
F4.0
sI593
F4.0
sI339
F4.0
sI852
F3.5
sI608
F5.0
sI932
F5.0
sI800
F4.0
sI733
F3.5
sI223
F4.0
sI224
F5.0
sI356
F3.5
sI508
F3.5
sI364
F3.5
sI110
F4.0
sI368
F4.5
sI497
F4.0
sI372
F3.5
sI377
F3.5
sI122
F3.5
sI380
F4.5
sI253
F3.5
ssI112
(dp110
I1
F5.0
sI802
F4.0
sI3
F5.0
sI708
F5.0
sI805
F5.0
sI296
F5.0
sI41
F5.0
sI780
F4.0
sI141
F4.0
sI85
F5.0
sI376
F5.0
sI733
F4.0
ssI113
(dp111
I2
F5.0
sI5
F5.0
sI6
F4.0
sI135
F5.0
sI8
F5.0
sI9
F4.0
sI140
F5.0
sI16
F5.0
sI20
F5.0
sI21
F5.0
sI24
F5.0
sI25
F4.0
sI36
F4.0
sI647
F5.0
sI65
F4.0
sI711
F5.0
sI74
F5.0
sI79
F5.0
sI89
F4.0
sI104
F5.0
sI105
F5.0
sI494
F5.0
sI616
F5.0
sI762
F5.0
sI637
F5.0
ssI114
(dp112
I588
F5.0
sI34
F5.0
sI292
F4.0
sI356
F5.0
sI10
F4.0
sI364
F5.0
sI333
F5.0
sI590
F4.0
sI208
F4.0
sI434
F5.0
sI339
F4.0
sI586
F5.0
sI457
F5.0
sI185
F4.0
sI595
F5.0
sI380
F5.0
sI349
F5.0
sI158
F4.0
ssI115
(dp113
I480
F5.0
sI608
F5.0
sI2
F5.0
sI3
F5.0
sI231
F4.5
sI520
F4.0
sI45
F3.5
sI19
F4.0
sI318
F5.0
sI543
F3.5
ssI116
(dp114
I260
F5.0
sI231
F5.0
sI296
F5.0
sI47
F5.0
sI356
F4.5
sI316
F4.0
sI733
F4.0
sI318
F4.5
ssI117
(dp115
I524
F4.0
sI527
F3.5
sI215
F3.5
sI281
F4.0
sI539
F5.0
sI318
F5.0
ssI118
(dp116
I260
F5.0
sI903
F4.0
sI904
F5.0
sI905
F5.0
sI908
F5.0
sI780
F4.0
sI527
F5.0
sI16
F4.0
sI913
F4.0
sI922
F5.0
sI924
F5.0
sI541
F4.0
sI32
F4.0
sI930
F4.0
sI36
F4.0
sI296
F5.0
sI47
F4.0
sI50
F5.0
sI329
F4.0
sI954
F4.0
sI832
F4.0
sI608
F5.0
sI457
F5.0
sI589
F5.0
sI593
F5.0
sI474
F4.0
sI480
F4.0
sI866
F5.0
sI750
F5.0
sI111
F4.0
sI377
F4.0
ssI119
(dp117
I750
F5.0
sI912
F5.0
sI260
F5.0
sI6
F5.0
sI903
F5.0
sI904
F5.0
sI265
F4.0
sI266
F4.0
sI919
F5.0
sI908
F5.0
sI141
F4.0
sI910
F5.0
sI527
F5.0
sI272
F5.0
sI145
F4.0
sI532
F4.0
sI21
F4.0
sI535
F4.0
sI920
F5.0
sI26
F5.0
sI923
F5.0
sI924
F4.0
sI541
F4.0
sI926
F5.0
sI32
F4.0
sI161
F4.0
sI163
F4.0
sI943
F4.0
sI678
F4.0
sI551
F5.0
sI296
F5.0
sI41
F4.0
sI428
F4.0
sI922
F4.0
sI47
F5.0
sI50
F4.0
sI608
F5.0
sI953
F4.0
sI954
F4.0
sI735
F4.0
sI913
F5.0
sI778
F4.0
sI62
F4.0
sI373
F4.0
sI832
F4.0
sI288
F4.0
sI971
F4.0
sI70
F4.0
sI969
F5.0
sI587
F4.0
sI588
F4.0
sI589
F4.0
sI590
F5.0
sI592
F4.0
sI593
F4.0
sI595
F4.0
sI596
F4.0
sI597
F4.0
sI599
F4.0
sI728
F5.0
sI345
F5.0
sI858
F5.0
sI800
F4.0
sI733
F4.0
sI223
F4.0
sI480
F4.0
sI481
F4.0
sI785
F4.0
sI745
F5.0
sI235
F4.0
sI492
F4.0
sI110
F5.0
sI111
F5.0
sI318
F4.0
sI788
F4.0
sI383
F4.0
ssI120
(dp118
I32
F3.5
sI356
F4.5
sI454
F3.5
sI593
F4.5
sI104
F5.0
sI457
F3.5
sI648
F3.5
sI587
F3.5
sI780
F3.5
sI589
F4.0
sI47
F3.5
sI592
F3.5
sI296
F3.5
sI50
F4.0
sI380
F3.5
ssI121
(dp119
I1
F4.0
sI515
F5.0
sI6
F4.0
sI265
F5.0
sI11
F4.0
sI780
F5.0
sI527
F5.0
sI17
F5.0
sI529
F4.0
sI150
F4.0
sI281
F5.0
sI282
F4.0
sI161
F4.0
sI34
F5.0
sI163
F5.0
sI293
F5.0
sI39
F4.0
sI40
F5.0
sI171
F4.0
sI300
F4.0
sI303
F5.0
sI50
F5.0
sI307
F5.0
sI457
F4.0
sI440
F5.0
sI442
F4.0
sI95
F4.0
sI318
F5.0
sI377
F4.0
sI736
F4.0
sI198
F5.0
sI329
F4.0
sI203
F4.0
sI588
F4.0
sI589
F5.0
sI590
F4.0
sI592
F4.0
sI593
F4.0
sI497
F5.0
sI468
F4.0
sI215
F4.0
sI345
F5.0
sI475
F4.0
sI349
F4.0
sI222
F4.0
sI223
F4.0
sI480
F4.0
sI315
F5.0
sI356
F4.0
sI357
F4.0
sI273
F4.0
sI551
F4.0
sI364
F4.0
sI110
F5.0
sI296
F5.0
sI595
F4.0
sI246
F5.0
sI249
F4.0
sI380
F4.0
sI509
F4.0
ssI122
(dp120
I497
F4.0
sI73
F4.0
sI272
F4.0
sI529
F4.0
sI534
F5.0
sI316
F4.0
sI318
F4.0
ssI123
(dp121
I288
F5.0
sI233
F4.0
sI785
F5.0
sI407
F5.0
ssI124
(dp122
I1
F4.5
sI356
F4.0
sI293
F4.5
sI589
F5.0
sI110
F5.0
sI47
F3.5
sI593
F3.5
sI19
F4.0
sI350
F4.0
sI527
F5.0
sI318
F3.5
ssI125
(dp123
I1
F4.0
sI260
F5.0
sI903
F4.5
sI648
F4.0
sI236
F4.5
sI908
F5.0
sI11
F4.0
sI524
F4.0
sI912
F5.0
sI913
F4.0
sI150
F4.5
sI919
F4.5
sI539
F4.0
sI858
F4.5
sI546
F4.0
sI293
F4.5
sI296
F5.0
sI47
F4.5
sI904
F5.0
sI50
F5.0
sI440
F4.0
sI953
F5.0
sI318
F5.0
sI608
F5.0
sI457
F3.5
sI586
F4.0
sI595
F4.0
sI344
F4.0
sI474
F5.0
sI933
F4.0
sI480
F5.0
sI356
F5.0
sI231
F5.0
sI104
F4.0
sI364
F4.0
sI750
F5.0
sI111
F4.0
sI508
F4.0
ssI126
(dp124
I1
F5.0
sI529
F4.0
sI150
F5.0
sI153
F4.0
sI410
F4.0
sI539
F4.0
sI161
F4.0
sI292
F4.0
sI551
F4.0
sI440
F4.0
sI58
F4.0
sI318
F4.0
sI457
F4.0
sI588
F5.0
sI589
F5.0
sI592
F4.0
sI593
F4.0
sI466
F4.0
sI595
F4.0
sI596
F4.0
sI471
F5.0
sI344
F4.0
sI474
F5.0
sI349
F4.0
sI480
F5.0
sI356
F4.0
sI231
F4.0
sI364
F4.0
sI367
F4.0
sI368
F4.0
sI497
F4.0
sI500
F4.0
sI246
F4.0
sI377
F4.0
sI380
F4.0
ssI127
(dp125
I736
F4.0
sI193
F4.0
sI356
F4.0
sI5
F4.0
sI454
F4.0
sI135
F5.0
sI648
F4.0
sI586
F4.0
sI236
F4.0
sI237
F5.0
sI367
F4.0
sI370
F4.0
sI339
F5.0
sI500
F5.0
sI597
F5.0
sI539
F4.0
sI380
F4.0
ssI128
(dp126
I1
F5.0
sI2
F4.0
sI516
F5.0
sI7
F5.0
sI8
F4.0
sI266
F5.0
sI733
F5.0
sI140
F5.0
sI527
F5.0
sI145
F4.0
sI788
F4.0
sI662
F4.0
sI280
F5.0
sI539
F5.0
sI160
F4.0
sI673
F4.0
sI802
F4.0
sI292
F4.0
sI39
F4.0
sI168
F4.0
sI170
F5.0
sI257
F5.0
sI45
F5.0
sI47
F5.0
sI48
F5.0
sI434
F5.0
sI179
F4.0
sI313
F4.0
sI317
F5.0
sI736
F5.0
sI587
F5.0
sI455
F4.0
sI780
F5.0
sI420
F5.0
sI588
F5.0
sI79
F5.0
sI593
F5.0
sI595
F5.0
sI340
F5.0
sI597
F5.0
sI86
F5.0
sI89
F5.0
sI783
F5.0
sI605
F4.0
sI350
F4.0
sI480
F5.0
sI356
F5.0
sI362
F5.0
sI364
F5.0
sI110
F5.0
sI628
F5.0
sI377
F5.0
sI380
F4.0
sI509
F5.0
ssI129
(dp127
I527
F5.0
ssI130
(dp128
I899
F4.5
sI260
F4.5
sI10
F3.5
sI908
F3.5
sI527
F4.0
sI272
F3.5
sI914
F3.5
sI21
F3.5
sI150
F4.0
sI919
F3.5
sI541
F4.0
sI36
F4.0
sI293
F4.0
sI300
F3.5
sI303
F3.5
sI50
F3.5
sI953
F5.0
sI315
F3.5
sI318
F3.5
sI457
F4.0
sI588
F4.0
sI589
F3.5
sI590
F4.0
sI592
F3.5
sI337
F4.0
sI594
F4.0
sI339
F3.5
sI596
F4.0
sI858
F4.0
sI475
F3.5
sI353
F3.5
sI356
F3.5
sI231
F3.5
sI745
F4.0
sI364
F3.5
sI720
F4.0
sI497
F4.0
sI595
F3.5
sI500
F3.5
sI246
F4.0
sI380
F3.5
sI661
F3.5
ssI131
(dp129
I728
F5.0
sI593
F5.0
sI306
F5.0
sI307
F5.0
sI356
F5.0
ssI132
(dp130
I356
F4.5
sI296
F4.5
sI590
F3.5
sI593
F3.5
sI153
F3.5
sI126
F4.0
ssI133
(dp131
I296
F4.0
sI356
F3.5
ssI134
(dp132
I1
F3.5
sI2
F4.5
sI260
F3.5
sI648
F4.5
sI10
F4.0
sI780
F4.5
sI141
F5.0
sI16
F4.0
sI539
F3.5
sI924
F4.0
sI29
F5.0
sI32
F4.5
sI36
F4.0
sI165
F4.0
sI39
F3.5
sI296
F4.5
sI300
F4.0
sI47
F4.5
sI457
F4.5
sI440
F4.0
sI316
F4.5
sI778
F4.5
sI318
F4.0
sI319
F4.5
sI608
F4.5
sI708
F4.0
sI329
F4.0
sI587
F3.5
sI589
F5.0
sI592
F4.0
sI593
F5.0
sI736
F4.5
sI342
F4.0
sI292
F4.5
sI349
F4.0
sI293
F5.0
sI480
F5.0
sI356
F4.0
sI551
F5.0
sI500
F4.0
sI377
F3.5
sI541
F5.0
sI253
F4.0
ssI135
(dp133
I121
F4.0
sI18
F4.0
sI778
F5.0
ssI136
(dp134
I1
F4.5
sI260
F4.5
sI780
F4.0
sI104
F4.5
sI588
F4.5
sI586
F3.5
sI364
F4.5
sI595
F4.0
sI500
F3.5
sI953
F4.0
sI318
F4.0
ssI137
(dp135
I32
F5.0
sI736
F4.0
sI898
F4.0
sI899
F4.0
sI260
F5.0
sI296
F5.0
sI588
F4.0
sI10
F4.0
sI364
F5.0
sI541
F4.0
sI590
F4.0
sI367
F5.0
sI50
F5.0
sI595
F5.0
sI910
F5.0
sI952
F4.0
sI380
F5.0
sI349
F4.0
sI589
F5.0
ssI138
(dp136
I356
F4.0
sI296
F4.5
sI527
F4.0
sI50
F4.0
sI260
F4.0
sI858
F5.0
sI924
F5.0
sI318
F4.5
ssI139
(dp137
I480
F4.5
sI333
F4.0
sI110
F3.5
sI342
F4.5
sI541
F4.0
sI318
F3.5
ssI140
(dp138
I256
F3.5
sI356
F4.5
sI5
F4.5
sI267
F3.5
sI364
F4.0
sI593
F4.5
sI765
F4.5
sI318
F5.0
ssI141
(dp139
I480
F4.0
sI349
F4.0
sI318
F5.0
ssI142
(dp140
I1
F4.0
sI919
F5.0
sI593
F5.0
ssI143
(dp141
I832
F3.5
sI356
F5.0
sI101
F5.0
sI296
F4.0
sI778
F4.5
sI527
F3.5
sI593
F4.5
sI920
F5.0
sI47
F4.5
sI318
F4.5
ssI144
(dp142
I32
F5.0
sI225
F4.0
sI165
F4.0
sI454
F5.0
sI593
F5.0
sI296
F5.0
sI457
F5.0
sI10
F5.0
sI364
F5.0
sI589
F5.0
sI590
F4.0
sI47
F4.0
sI337
F4.0
sI480
F4.0
sI349
F5.0
sI377
F5.0
sI527
F4.0
sI266
F4.0
ssI145
(dp143
I10
F5.0
sI780
F5.0
sI19
F5.0
sI153
F5.0
sI410
F4.0
sI32
F5.0
sI161
F5.0
sI292
F4.0
sI165
F5.0
sI47
F5.0
sI434
F5.0
sI185
F5.0
sI316
F5.0
sI317
F5.0
sI587
F5.0
sI588
F4.0
sI589
F5.0
sI592
F5.0
sI593
F5.0
sI595
F4.0
sI597
F5.0
sI344
F5.0
sI480
F5.0
sI225
F5.0
sI356
F5.0
sI231
F5.0
sI364
F5.0
sI110
F4.0
sI367
F5.0
sI500
F5.0
sI377
F5.0
sI380
F5.0
ssI146
(dp144
I480
F4.0
sI1
F5.0
sI260
F5.0
sI588
F5.0
sI520
F4.0
sI457
F4.0
sI364
F5.0
sI494
F3.5
sI592
F4.0
sI593
F4.0
sI736
F3.5
sI150
F4.0
sI524
F3.5
sI356
F4.0
sI733
F4.0
sI318
F4.5
sI780
F3.5
ssI147
(dp145
I608
F5.0
sI934
F4.0
sI296
F5.0
sI778
F5.0
sI111
F5.0
sI527
F4.5
sI50
F5.0
sI207
F3.5
sI381
F3.5
ssI148
(dp146
I903
F5.0
sI648
F4.0
sI492
F3.5
sI780
F3.5
sI913
F4.0
sI919
F4.5
sI924
F5.0
sI29
F3.5
sI32
F4.0
sI934
F3.5
sI40
F4.5
sI904
F5.0
sI52
F4.0
sI950
F3.5
sI58
F4.0
sI329
F4.0
sI588
F4.0
sI589
F3.5
sI590
F3.5
sI596
F4.5
sI480
F4.5
sI232
F4.5
sI364
F4.0
ssI149
(dp147
I260
F3.5
sI293
F4.5
sI231
F4.0
sI296
F4.0
sI39
F3.5
sI780
F3.5
sI47
F3.5
sI337
F3.5
sI356
F3.5
sI541
F3.5
sI253
F3.5
sI318
F4.5
ssI150
(dp148
I260
F4.5
sI648
F3.5
sI10
F4.0
sI780
F4.0
sI216
F4.5
sI21
F3.5
sI25
F4.0
sI541
F3.5
sI165
F3.5
sI296
F4.5
sI733
F3.5
sI50
F4.5
sI185
F3.5
sI316
F4.0
sI318
F5.0
sI832
F3.5
sI736
F4.0
sI457
F4.0
sI588
F3.5
sI589
F3.5
sI852
F3.5
sI344
F3.5
sI858
F3.5
sI349
F4.0
sI805
F4.0
sI480
F3.5
sI356
F4.5
sI785
F3.5
sI104
F5.0
sI999
F4.0
sI110
F4.5
sI112
F4.0
sI376
F4.0
sI377
F3.5
sI380
F4.0
ssI151
(dp149
I2
F4.0
sI10
F5.0
sI527
F5.0
sI21
F5.0
sI150
F5.0
sI32
F5.0
sI161
F5.0
sI292
F4.0
sI165
F4.0
sI296
F5.0
sI47
F5.0
sI434
F4.0
sI435
F5.0
sI457
F5.0
sI442
F4.0
sI316
F5.0
sI288
F4.0
sI454
F4.0
sI329
F5.0
sI587
F5.0
sI589
F5.0
sI208
F4.0
sI474
F4.0
sI349
F4.0
sI350
F4.0
sI480
F5.0
sI356
F5.0
sI357
F5.0
sI231
F4.0
sI364
F5.0
sI110
F4.0
sI500
F4.0
sI377
F5.0
sI380
F4.0
ssI152
(dp150
I1
F3.5
sI260
F4.0
sI6
F4.0
sI780
F4.0
sI21
F3.5
sI150
F3.5
sI111
F3.5
sI924
F4.0
sI541
F4.5
sI32
F5.0
sI161
F4.0
sI293
F4.0
sI296
F4.5
sI47
F5.0
sI50
F5.0
sI316
F4.0
sI318
F4.0
sI454
F3.5
sI457
F4.0
sI590
F3.5
sI593
F4.5
sI95
F3.5
sI608
F4.5
sI357
F3.5
sI367
F4.0
sI377
F3.5
sI380
F3.5
ssI153
(dp151
I32
F5.0
sI1
F5.0
sI34
F4.0
sI932
F5.0
sI296
F5.0
sI307
F5.0
sI170
F5.0
sI912
F5.0
sI920
F5.0
sI306
F5.0
sI147
F4.0
sI760
F5.0
ssI154
(dp152
I608
F5.0
sI1
F4.0
sI3
F4.0
sI806
F4.0
sI673
F4.0
sI648
F5.0
sI107
F4.0
sI780
F5.0
sI18
F5.0
sI52
F5.0
sI85
F4.0
sI762
F4.0
sI671
F4.0
sI661
F5.0
ssI155
(dp153
I260
F5.0
sI965
F4.0
sI198
F4.0
sI908
F4.0
sI589
F4.0
sI110
F4.0
sI527
F5.0
sI912
F4.0
sI593
F5.0
sI924
F4.0
sI541
F5.0
ssI156
(dp154
I802
F4.5
sI36
F5.0
sI485
F3.5
sI785
F4.5
sI372
F4.0
sI508
F5.0
ssI157
(dp155
I32
F4.0
sI1
F3.5
sI260
F3.5
sI293
F4.5
sI551
F4.0
sI296
F4.0
sI10
F3.5
sI235
F4.5
sI589
F4.0
sI47
F3.5
sI648
F3.5
sI50
F4.0
sI778
F4.0
sI924
F3.5
sI541
F3.5
sI741
F4.0
ssI158
(dp156
I481
F3.5
sI319
F4.0
ssI159
(dp157
I260
F5.0
sI903
F4.0
sI904
F5.0
sI265
F4.0
sI780
F3.5
sI527
F4.5
sI912
F5.0
sI913
F4.0
sI150
F3.5
sI25
F4.5
sI923
F5.0
sI541
F5.0
sI800
F4.5
sI165
F3.5
sI296
F4.5
sI47
F3.5
sI50
F4.5
sI318
F5.0
sI608
F4.0
sI908
F4.0
sI589
F3.5
sI593
F5.0
sI858
F4.0
sI933
F4.5
sI480
F4.0
sI356
F4.0
sI745
F3.5
sI364
F3.5
sI110
F4.0
sI111
F4.0
sI497
F3.5
sI62
F3.5
ssI160
(dp158
I832
F5.0
sI36
F4.0
sI454
F4.0
sI457
F5.0
sI490
F4.0
sI587
F5.0
sI111
F4.0
sI339
F4.0
sI318
F5.0
sI280
F5.0
sI356
F5.0
sI539
F5.0
sI350
F4.0
sI597
F5.0
ssI161
(dp159
I2
F4.0
sI172
F4.0
sI10
F4.0
sI11
F4.0
sI141
F5.0
sI17
F5.0
sI150
F4.0
sI410
F5.0
sI508
F4.0
sI158
F4.0
sI161
F5.0
sI163
F4.0
sI36
F4.0
sI553
F4.0
sI300
F4.0
sI47
F4.0
sI440
F4.0
sI185
F4.0
sI266
F4.0
sI318
F5.0
sI454
F4.0
sI457
F5.0
sI587
F4.0
sI589
F5.0
sI593
F5.0
sI344
F4.0
sI292
F4.0
sI474
F4.0
sI350
F5.0
sI95
F4.0
sI480
F4.0
sI225
F4.0
sI356
F4.0
sI357
F5.0
sI380
F4.0
sI368
F5.0
sI500
F4.0
sI62
F4.0
sI377
F5.0
sI252
F4.0
sI509
F4.0
ssI162
(dp160
I608
F5.0
sI5
F4.0
sI140
F4.0
sI141
F5.0
sI17
F4.0
sI52
F5.0
sI376
F4.0
sI62
F5.0
ssI163
(dp161
I480
F3.5
sI356
F5.0
sI457
F4.0
sI586
F3.5
sI110
F4.0
sI527
F5.0
sI593
F4.5
sI150
F4.5
sI260
F4.0
sI858
F5.0
sI318
F5.0
ssI164
(dp162
I608
F4.5
sI1
F3.5
sI293
F4.0
sI913
F4.0
sI104
F4.0
sI908
F4.5
sI10
F4.0
sI364
F4.0
sI111
F4.5
sI296
F4.5
sI904
F3.5
sI441
F4.0
sI922
F4.0
sI954
F5.0
sI318
F4.5
sI223
F4.5
ssI165
(dp163
I520
F5.0
sI780
F4.0
sI527
F4.0
sI145
F3.5
sI529
F3.5
sI22
F3.5
sI919
F3.5
sI280
F3.5
sI538
F3.5
sI367
F3.5
sI31
F3.5
sI163
F4.0
sI165
F5.0
sI296
F3.5
sI44
F4.0
sI47
F3.5
sI648
F3.5
sI543
F4.5
sI671
F3.5
sI318
F4.0
sI322
F4.5
sI70
F5.0
sI968
F5.0
sI586
F4.5
sI588
F4.0
sI589
F4.5
sI592
F4.0
sI466
F4.0
sI344
F4.0
sI216
F3.5
sI293
F5.0
sI356
F3.5
sI485
F3.5
sI231
F4.0
sI104
F4.0
sI508
F4.5
sI364
F3.5
sI110
F4.5
sI111
F4.0
sI424
F3.5
sI805
F4.5
sI62
F3.5
sI380
F4.0
ssI166
(dp164
I480
F3.5
sI34
F4.0
sI163
F3.5
sI356
F4.0
sI293
F4.5
sI524
F4.0
sI590
F5.0
sI147
F4.5
sI342
F4.0
sI376
F4.0
ssI167
(dp165
I480
F5.0
sI575
F5.0
ssI168
(dp166
I1
F5.0
sI515
F4.0
sI260
F5.0
sI780
F4.0
sI269
F4.0
sI912
F5.0
sI21
F4.0
sI150
F4.0
sI924
F5.0
sI541
F4.0
sI417
F4.0
sI39
F4.0
sI296
F4.0
sI555
F4.0
sI300
F4.0
sI50
F4.0
sI440
F4.0
sI318
F5.0
sI322
F4.0
sI457
F4.0
sI589
F4.0
sI590
F4.0
sI593
F5.0
sI474
F4.0
sI608
F5.0
sI356
F4.0
sI235
F4.0
sI364
F4.0
sI493
F4.0
sI750
F5.0
sI111
F5.0
sI377
F4.0
ssI169
(dp167
I1
F4.0
sI262
F3.5
sI838
F3.5
sI780
F5.0
sI527
F5.0
sI914
F3.5
sI502
F3.5
ssI171
(dp168
I608
F5.0
sI296
F5.0
sI555
F5.0
sI110
F5.0
sI111
F5.0
sI16
F5.0
sI785
F5.0
sI47
F4.0
sI223
F5.0
ssI172
(dp169
I806
F5.0
sI296
F5.0
sI457
F4.0
sI586
F4.0
sI107
F5.0
sI300
F4.0
sI527
F4.0
sI17
F4.0
sI50
F5.0
sI150
F4.0
sI663
F5.0
sI509
F4.0
sI318
F4.0
ssI173
(dp170
I1
F4.0
sI260
F5.0
sI6
F5.0
sI647
F4.0
sI778
F5.0
sI780
F4.0
sI799
F4.0
sI32
F4.0
sI673
F4.0
sI804
F4.0
sI805
F4.0
sI40
F4.0
sI605
F5.0
sI62
F4.0
sI832
F4.0
sI852
F5.0
sI733
F5.0
sI736
F4.0
sI100
F4.0
sI745
F5.0
sI494
F4.0
sI112
F4.0
ssI174
(dp171
I48
F4.5
sI168
F4.0
sI186
F3.5
sI370
F3.5
sI552
F4.0
ssI175
(dp172
I480
F4.0
sI1
F4.0
sI260
F5.0
sI261
F4.0
sI262
F5.0
sI199
F4.0
sI296
F5.0
sI73
F4.0
sI107
F4.0
sI364
F4.0
sI47
F4.0
sI595
F4.0
sI919
F4.0
sI95
F4.0
ssI176
(dp173
I260
F4.0
sI296
F4.0
sI588
F3.5
sI783
F3.5
sI593
F4.0
sI595
F4.0
ssI177
(dp174
I512
F4.0
sI1
F5.0
sI2
F5.0
sI150
F5.0
sI6
F5.0
sI10
F4.0
sI733
F4.0
sI780
F5.0
sI18
F4.0
sI788
F4.0
sI610
F5.0
sI22
F4.0
sI736
F4.0
sI861
F4.0
sI541
F5.0
sI798
F4.0
sI588
F4.0
sI32
F4.0
sI161
F4.0
sI163
F4.0
sI164
F4.0
sI198
F5.0
sI422
F5.0
sI423
F5.0
sI170
F4.0
sI172
F4.0
sI832
F4.0
sI223
F5.0
sI47
F5.0
sI50
F5.0
sI435
F4.0
sI457
F5.0
sI185
F4.0
sI95
F4.0
sI316
F4.0
sI319
F4.0
sI741
F4.0
sI608
F5.0
sI70
F4.0
sI292
F4.0
sI200
F4.0
sI329
F4.0
sI587
F4.0
sI332
F4.0
sI589
F4.0
sI593
F5.0
sI338
F4.0
sI600
F4.0
sI89
F4.0
sI474
F5.0
sI349
F4.0
sI350
F4.0
sI165
F5.0
sI480
F5.0
sI353
F4.0
sI482
F4.0
sI356
F5.0
sI293
F5.0
sI230
F4.0
sI662
F5.0
sI454
F4.0
sI691
F4.0
sI786
F4.0
sI111
F4.0
sI497
F5.0
sI481
F4.0
sI628
F5.0
sI376
F4.0
sI377
F4.0
ssI178
(dp175
I608
F4.0
sI1
F4.0
sI260
F5.0
sI293
F3.5
sI551
F3.5
sI296
F5.0
sI778
F4.5
sI364
F4.0
sI110
F3.5
sI111
F4.5
sI593
F4.0
sI595
F3.5
sI920
F4.5
sI858
F4.0
sI318
F5.0
ssI179
(dp176
I1
F5.0
ssI180
(dp177
I24
F4.0
sI589
F4.0
sI527
F4.0
ssI181
(dp178
I296
F5.0
sI555
F5.0
sI435
F3.5
sI380
F5.0
sI733
F4.0
ssI182
(dp179
I2
F5.0
sI3
F4.0
sI5
F4.0
sI780
F5.0
sI7
F5.0
sI8
F5.0
sI11
F5.0
sI524
F5.0
sI141
F4.0
sI270
F5.0
sI146
F5.0
sI531
F4.0
sI276
F5.0
sI238
F4.0
sI150
F5.0
sI539
F5.0
sI261
F4.0
sI688
F4.0
sI34
F5.0
sI292
F4.0
sI838
F4.0
sI168
F5.0
sI595
F5.0
sI647
F5.0
sI733
F5.0
sI432
F5.0
sI494
F5.0
sI802
F5.0
sI457
F4.0
sI440
F4.0
sI185
F4.0
sI60
F4.0
sI317
F4.0
sI62
F5.0
sI736
F5.0
sI195
F4.0
sI708
F4.0
sI454
F4.0
sI201
F4.0
sI587
F5.0
sI589
F4.0
sI590
F5.0
sI207
F5.0
sI208
F4.0
sI594
F5.0
sI339
F5.0
sI852
F4.0
sI597
F5.0
sI313
F4.0
sI986
F5.0
sI719
F4.0
sI349
F4.0
sI350
F4.0
sI351
F5.0
sI480
F5.0
sI225
F4.0
sI356
F5.0
sI616
F5.0
sI105
F4.0
sI362
F5.0
sI364
F4.0
sI110
F5.0
sI765
F5.0
sI368
F4.0
sI243
F4.0
sI500
F5.0
sI830
F5.0
sI361
F5.0
sI377
F4.0
sI383
F4.0
sI380
F4.0
sI637
F4.0
sI277
F5.0
ssI183
(dp180
I32
F5.0
sI608
F5.0
sI34
F4.0
sI36
F4.0
sI296
F5.0
sI47
F5.0
sI593
F4.0
sI50
F5.0
sI345
F4.0
sI527
F4.0
sI924
F4.0
sI318
F5.0
ssI184
(dp181
I1
F5.0
sI527
F4.0
sI280
F4.0
sI431
F4.0
sI288
F4.0
sI293
F5.0
sI296
F5.0
sI555
F4.0
sI300
F4.0
sI175
F4.0
sI440
F4.0
sI318
F5.0
sI457
F4.0
sI588
F4.0
sI589
F5.0
sI720
F5.0
sI337
F4.0
sI595
F4.0
sI471
F5.0
sI474
F5.0
sI349
F4.0
sI223
F5.0
sI357
F4.0
sI593
F4.0
sI364
F5.0
sI500
F4.0
sI377
F4.0
ssI185
(dp182
I1
F5.0
sI2
F4.0
sI750
F4.0
sI778
F4.0
sI780
F4.0
sI653
F4.0
sI527
F5.0
sI914
F4.0
sI661
F4.0
sI24
F4.0
sI29
F5.0
sI543
F4.0
sI551
F4.0
sI50
F5.0
sI316
F4.0
sI317
F4.0
sI318
F5.0
sI450
F4.0
sI329
F4.0
sI588
F4.0
sI589
F4.0
sI720
F4.0
sI593
F4.0
sI595
F5.0
sI223
F4.0
sI353
F5.0
sI610
F4.0
sI356
F4.0
sI741
F5.0
sI745
F5.0
sI110
F4.0
sI367
F4.0
ssI186
(dp183
I555
F4.0
sI924
F5.0
ssI187
(dp184
I1
F4.0
sI524
F4.0
sI141
F4.0
sI783
F3.5
sI16
F4.0
sI147
F4.0
sI593
F4.0
sI919
F4.5
sI410
F4.0
sI926
F4.0
sI162
F4.0
sI805
F4.5
sI39
F4.5
sI296
F4.5
sI175
F4.0
sI628
F4.0
sI562
F4.5
sI180
F4.5
sI441
F3.5
sI317
F4.0
sI318
F5.0
sI454
F4.0
sI780
F4.0
sI586
F3.5
sI588
F4.5
sI337
F5.0
sI594
F4.0
sI595
F4.5
sI596
F3.5
sI597
F4.0
sI223
F4.5
sI480
F3.5
sI609
F3.5
sI356
F4.5
sI231
F3.5
sI104
F4.0
sI551
F4.0
sI364
F4.5
sI367
F3.5
sI500
F3.5
sI724
F4.0
ssI188
(dp185
I2
F4.0
sI802
F4.0
sI10
F4.0
sI527
F5.0
sI661
F4.0
sI150
F5.0
sI24
F4.0
sI282
F4.0
sI736
F4.0
sI543
F4.0
sI32
F4.0
sI112
F4.0
sI34
F4.0
sI296
F5.0
sI733
F4.0
sI312
F4.0
sI60
F4.0
sI318
F5.0
sI288
F4.0
sI586
F4.0
sI587
F5.0
sI588
F4.0
sI589
F5.0
sI590
F4.0
sI593
F4.0
sI594
F5.0
sI595
F4.0
sI596
F5.0
sI597
F4.0
sI344
F4.0
sI217
F4.0
sI475
F4.0
sI349
F4.0
sI485
F4.0
sI480
F4.0
sI356
F5.0
sI357
F4.0
sI508
F5.0
sI364
F4.0
sI110
F5.0
sI368
F4.0
sI500
F5.0
sI380
F5.0
ssI189
(dp186
I288
F5.0
sI481
F4.0
sI299
F4.0
sI785
F4.0
sI608
F5.0
sI541
F5.0
ssI190
(dp187
I785
F5.0
sI314
F5.0
sI43
F4.0
sI342
F4.0
sI223
F4.0
ssI191
(dp188
I161
F4.0
sI356
F4.0
sI296
F5.0
sI457
F4.0
sI300
F4.0
sI590
F4.0
sI593
F4.0
sI339
F4.0
sI150
F4.0
sI318
F5.0
ssI192
(dp189
I2
F4.0
sI266
F5.0
sI527
F5.0
sI277
F4.0
sI34
F5.0
sI432
F4.0
sI318
F5.0
sI457
F4.0
sI586
F5.0
sI587
F4.0
sI588
F4.0
sI590
F5.0
sI594
F5.0
sI595
F5.0
sI344
F4.0
sI349
F4.0
sI480
F4.0
sI356
F4.0
sI231
F4.0
sI362
F4.0
sI364
F5.0
sI237
F5.0
sI500
F4.0
sI62
F5.0
sI508
F4.0
ssI193
(dp190
I608
F5.0
sI1
F4.0
sI356
F4.0
sI593
F4.0
sI904
F4.0
sI105
F4.0
sI428
F5.0
sI111
F5.0
sI16
F4.0
sI337
F5.0
sI277
F4.0
sI858
F5.0
sI527
F5.0
sI957
F4.0
sI318
F4.0
sI543
F5.0
ssI194
(dp191
I32
F4.0
sI225
F4.0
sI356
F5.0
sI165
F4.0
sI780
F4.0
sI736
F4.0
sI329
F4.0
sI204
F4.0
sI589
F4.0
sI110
F4.0
sI367
F4.0
sI592
F4.0
sI434
F4.0
sI339
F4.0
sI590
F4.0
sI150
F4.0
sI364
F5.0
sI527
F5.0
sI316
F4.0
sI349
F4.0
sI380
F4.0
ssI195
(dp192
I260
F5.0
sI6
F4.0
sI905
F5.0
sI910
F5.0
sI527
F4.0
sI912
F5.0
sI913
F5.0
sI661
F4.0
sI919
F4.0
sI920
F4.0
sI922
F5.0
sI923
F5.0
sI924
F5.0
sI34
F4.0
sI164
F4.0
sI942
F5.0
sI969
F4.0
sI953
F4.0
sI954
F4.0
sI608
F4.0
sI457
F4.0
sI930
F4.0
sI590
F4.0
sI973
F4.0
sI593
F4.0
sI722
F4.0
sI858
F5.0
sI480
F4.0
sI235
F4.0
ssI196
(dp193
I265
F5.0
sI5
F4.0
sI454
F4.0
sI261
F4.0
ssI197
(dp194
I610
F5.0
sI260
F5.0
sI329
F5.0
sI780
F5.0
sI589
F5.0
sI750
F4.0
sI653
F5.0
sI368
F4.0
sI442
F5.0
sI379
F4.0
sI924
F4.0
sI541
F4.0
ssI198
(dp195
I608
F3.5
sI912
F5.0
sI858
F5.0
sI36
F5.0
ssI199
(dp196
I260
F5.0
sI6
F4.5
sI778
F4.0
sI12
F4.0
sI527
F4.5
sI16
F4.0
sI405
F3.5
sI23
F3.5
sI25
F4.0
sI924
F3.5
sI541
F4.0
sI780
F3.5
sI32
F3.5
sI673
F3.5
sI292
F4.0
sI293
F4.5
sI296
F5.0
sI44
F4.0
sI173
F4.0
sI47
F4.5
sI50
F4.5
sI180
F3.5
sI316
F4.0
sI318
F4.5
sI319
F3.5
sI608
F3.5
sI457
F4.0
sI589
F5.0
sI208
F3.5
sI593
F4.5
sI480
F3.5
sI592
F4.0
sI356
F4.5
sI741
F5.0
sI110
F4.5
sI111
F4.0
sI380
F3.5
ssI200
(dp197
I32
F4.0
sI480
F3.5
sI2
F3.5
sI356
F4.0
sI293
F4.5
sI454
F4.5
sI593
F4.0
sI296
F4.0
sI170
F4.0
sI110
F3.5
sI527
F4.5
sI145
F4.5
sI648
F3.5
sI500
F4.0
sI597
F4.0
sI377
F3.5
sI586
F3.5
ssI201
(dp198
I1
F5.0
sI260
F5.0
sI6
F5.0
sI648
F4.0
sI780
F4.0
sI527
F4.0
sI150
F5.0
sI153
F4.0
sI32
F5.0
sI34
F4.0
sI165
F4.0
sI296
F5.0
sI47
F5.0
sI50
F5.0
sI58
F4.0
sI316
F4.0
sI318
F5.0
sI832
F4.0
sI416
F4.0
sI457
F4.0
sI589
F4.0
sI592
F4.0
sI593
F4.0
sI736
F4.0
sI608
F4.0
sI349
F4.0
sI293
F5.0
sI480
F5.0
sI356
F4.0
sI741
F5.0
sI110
F5.0
sI377
F4.0
sI380
F4.0
ssI202
(dp199
I296
F4.0
sI329
F4.0
sI318
F5.0
sI969
F5.0
ssI203
(dp200
I922
F4.5
sI750
F4.5
sI913
F4.0
sI50
F5.0
sI23
F3.5
sI858
F5.0
sI541
F4.5
sI318
F5.0
ssI204
(dp201
I16
F4.0
sI923
F4.5
ssI205
(dp202
I480
F4.5
sI1
F4.5
sI741
F4.5
sI10
F3.5
sI47
F4.5
sI593
F3.5
sI50
F5.0
sI858
F4.0
ssI207
(dp203
I296
F5.0
sI608
F5.0
sI69
F5.0
ssI208
(dp204
I16
F4.0
sI296
F4.5
sI924
F3.5
sI356
F4.5
sI231
F5.0
ssI209
(dp205
I163
F4.0
sI494
F4.0
ssI210
(dp206
I852
F3.5
sI524
F4.0
sI364
F3.5
sI350
F3.5
sI628
F4.0
ssI211
(dp207
I647
F4.0
sI648
F4.0
sI650
F4.0
sI780
F4.0
sI141
F5.0
sI527
F5.0
sI17
F4.0
sI661
F4.0
sI29
F5.0
sI32
F5.0
sI805
F4.0
sI43
F5.0
sI685
F4.0
sI733
F4.0
sI562
F4.0
sI52
F5.0
sI314
F5.0
sI778
F4.0
sI62
F5.0
sI832
F4.0
sI708
F4.0
sI969
F5.0
sI588
F4.0
sI781
F5.0
sI848
F5.0
sI82
F5.0
sI595
F4.0
sI728
F4.0
sI605
F4.0
sI608
F4.0
sI999
F4.0
sI110
F5.0
sI627
F4.0
sI630
F4.0
ssI212
(dp208
I260
F4.0
sI902
F3.5
sI520
F4.0
sI10
F3.5
sI527
F5.0
sI16
F4.0
sI17
F3.5
sI916
F3.5
sI750
F3.5
sI150
F4.0
sI919
F3.5
sI920
F3.5
sI923
F3.5
sI28
F4.0
sI32
F3.5
sI36
F4.0
sI805
F3.5
sI551
F4.0
sI296
F4.0
sI47
F3.5
sI48
F3.5
sI50
F3.5
sI180
F3.5
sI441
F3.5
sI95
F3.5
sI266
F4.0
sI318
F4.5
sI837
F3.5
sI838
F4.0
sI778
F5.0
sI971
F4.0
sI337
F3.5
sI339
F3.5
sI597
F3.5
sI342
F3.5
sI953
F4.5
sI292
F3.5
sI858
F5.0
sI783
F3.5
sI223
F4.0
sI912
F4.5
sI356
F4.0
sI593
F4.0
sI235
F4.0
sI364
F4.5
sI110
F5.0
sI509
F4.0
sI368
F3.5
sI595
F3.5
sI377
F4.0
sI508
F4.0
sI253
F4.0
ssI213
(dp209
I260
F5.0
sI780
F5.0
sI653
F4.0
sI786
F4.0
sI153
F4.0
sI292
F4.0
sI165
F3.5
sI168
F3.5
sI316
F4.5
sI832
F4.0
sI736
F4.0
sI457
F4.0
sI589
F4.0
sI592
F3.5
sI89
F3.5
sI474
F3.5
sI733
F4.0
sI480
F5.0
sI208
F4.0
sI748
F3.5
sI494
F4.0
sI552
F4.0
sI377
F4.0
ssI214
(dp210
I260
F5.0
sI780
F5.0
sI527
F5.0
sI750
F5.0
sI919
F5.0
sI924
F5.0
sI541
F5.0
sI800
F4.0
sI36
F4.0
sI296
F4.0
sI47
F4.0
sI50
F5.0
sI318
F5.0
sI319
F5.0
sI832
F4.0
sI608
F5.0
sI588
F4.0
sI589
F5.0
sI590
F5.0
sI593
F5.0
sI595
F4.0
sI858
F5.0
sI480
F4.0
sI745
F5.0
sI364
F5.0
sI110
F5.0
sI111
F5.0
sI628
F4.0
sI380
F4.0
sI509
F4.0
ssI215
(dp211
I608
F4.0
sI903
F4.0
sI904
F4.0
sI265
F5.0
sI908
F4.0
sI750
F5.0
sI527
F4.0
sI912
F5.0
sI913
F5.0
sI969
F5.0
sI919
F4.0
sI376
F4.0
sI953
F4.0
sI858
F5.0
sI111
F4.0
sI924
F5.0
ssI216
(dp212
I899
F4.0
sI260
F3.5
sI293
F4.0
sI551
F5.0
sI356
F4.5
sI910
F4.0
sI47
F5.0
sI48
F4.0
sI593
F4.0
sI596
F3.5
sI628
F4.0
sI919
F4.5
sI345
F4.0
sI783
F4.0
sI318
F5.0
ssI217
(dp213
I784
F3.5
sI3
F4.5
sI260
F5.0
sI135
F3.5
sI104
F4.5
sI329
F4.0
sI466
F3.5
sI110
F4.0
sI589
F5.0
sI16
F4.0
sI370
F5.0
sI457
F4.5
sI858
F5.0
ssI218
(dp214
I260
F4.0
sI750
F5.0
sI593
F4.0
sI919
F3.5
sI410
F3.5
sI223
F4.0
sI541
F4.5
sI318
F4.0
sI442
F3.5
ssI219
(dp215
I1
F5.0
sI11
F4.0
sI527
F4.0
sI216
F5.0
sI788
F4.0
sI539
F4.0
sI39
F4.0
sI296
F4.0
sI47
F4.0
sI50
F4.0
sI318
F5.0
sI588
F5.0
sI333
F5.0
sI344
F4.0
sI356
F4.0
sI357
F4.0
sI785
F4.0
sI104
F5.0
sI231
F5.0
sI367
F4.0
sI500
F4.0
sI377
F4.0
sI122
F4.0
ssI220
(dp216
I898
F5.0
sI260
F5.0
sI903
F4.0
sI648
F4.0
sI778
F5.0
sI912
F4.0
sI908
F4.0
sI910
F5.0
sI527
F5.0
sI272
F5.0
sI17
F5.0
sI750
F4.0
sI282
F4.0
sI924
F4.0
sI34
F4.0
sI36
F4.0
sI293
F5.0
sI296
F5.0
sI306
F4.0
sI307
F4.0
sI308
F4.0
sI62
F4.0
sI319
F5.0
sI589
F4.0
sI590
F4.0
sI337
F4.0
sI595
F4.0
sI468
F4.0
sI345
F4.0
sI858
F5.0
sI991
F4.0
sI608
F5.0
sI481
F4.0
sI356
F4.0
sI357
F4.0
sI16
F5.0
sI593
F4.0
sI745
F5.0
sI110
F4.0
sI367
F4.0
ssI222
(dp217
I899
F5.0
sI900
F5.0
sI229
F4.0
sI935
F4.0
sI938
F5.0
sI940
F5.0
sI943
F5.0
sI912
F5.0
sI946
F4.0
sI923
F4.0
sI956
F4.0
sI901
F5.0
ssI223
(dp218
I32
F4.0
sI608
F5.0
sI802
F4.0
sI36
F4.0
sI5
F4.0
sI6
F4.0
sI41
F4.0
sI494
F5.0
sI786
F5.0
sI628
F4.0
sI805
F4.0
sI86
F5.0
sI260
F5.0
sI832
F5.0
sI733
F5.0
sI62
F4.0
sI613
F5.0
ssI224
(dp219
I1
F4.0
sI2
F4.0
sI299
F4.0
sI260
F4.0
sI6
F5.0
sI265
F4.0
sI213
F5.0
sI16
F5.0
sI17
F5.0
sI999
F4.0
sI21
F4.0
sI150
F5.0
sI151
F4.0
sI306
F4.0
sI25
F4.0
sI154
F4.0
sI175
F5.0
sI28
F5.0
sI29
F4.0
sI30
F4.0
sI671
F4.0
sI32
F5.0
sI555
F4.0
sI34
F5.0
sI35
F4.0
sI36
F5.0
sI165
F4.0
sI296
F5.0
sI553
F5.0
sI43
F4.0
sI173
F4.0
sI302
F4.0
sI47
F4.0
sI347
F5.0
sI305
F4.0
sI50
F4.0
sI307
F4.0
sI52
F4.0
sI158
F5.0
sI55
F4.0
sI308
F4.0
sI314
F4.0
sI193
F4.0
sI452
F4.0
sI329
F4.0
sI588
F5.0
sI162
F5.0
sI288
F5.0
sI337
F4.0
sI82
F4.0
sI339
F4.0
sI468
F4.0
sI85
F4.0
sI494
F4.0
sI344
F4.0
sI335
F4.0
sI348
F5.0
sI736
F4.0
sI94
F4.0
sI223
F5.0
sI608
F5.0
sI272
F4.0
sI100
F4.0
sI103
F4.0
sI232
F4.0
sI233
F5.0
sI235
F5.0
sI110
F5.0
sI253
F4.0
sI242
F4.0
sI627
F4.0
sI410
F4.0
sI628
F4.0
sI247
F4.0
sI153
F4.0
sI249
F4.0
sI380
F4.0
sI125
F4.0
sI149
F5.0
ssI225
(dp220
I480
F5.0
sI588
F5.0
sI356
F5.0
sI329
F4.0
sI364
F4.0
sI589
F5.0
sI110
F4.0
sI47
F5.0
sI208
F4.0
sI593
F4.0
sI595
F5.0
sI724
F4.0
sI590
F5.0
sI150
F4.0
sI457
F5.0
sI344
F4.0
sI153
F4.0
sI367
F5.0
sI316
F4.0
sI253
F5.0
sI380
F4.0
ssI226
(dp221
I318
F4.0
ssI228
(dp222
I480
F5.0
sI370
F5.0
sI260
F5.0
sI589
F5.0
ssI229
(dp223
I904
F4.0
sI920
F4.5
sI858
F4.0
sI468
F3.5
sI953
F4.5
ssI230
(dp224
I608
F4.5
sI356
F5.0
sI293
F5.0
sI778
F4.0
sI555
F5.0
sI593
F4.0
sI318
F4.5
sI223
F3.5
ssI231
(dp225
I608
F5.0
sI357
F4.0
sI903
F4.0
sI296
F5.0
sI908
F4.0
sI111
F4.0
sI904
F5.0
sI50
F5.0
ssI232
(dp226
I514
F5.0
sI515
F5.0
sI517
F4.0
sI518
F4.0
sI520
F4.0
sI521
F5.0
sI11
F4.0
sI527
F4.0
sI17
F5.0
sI531
F5.0
sI534
F5.0
sI537
F5.0
sI539
F5.0
sI32
F5.0
sI944
F4.0
sI551
F4.0
sI50
F5.0
sI62
F5.0
sI580
F4.0
sI587
F4.0
sI588
F5.0
sI590
F5.0
sI592
F5.0
sI593
F5.0
sI594
F5.0
sI595
F4.0
sI596
F5.0
sI95
F4.0
sI608
F5.0
sI610
F4.0
sI100
F5.0
sI529
F4.0
sI105
F4.0
sI110
F5.0
sI111
F5.0
sI653
F4.0
sI150
F4.0
sI153
F4.0
sI164
F5.0
sI970
F5.0
sI940
F5.0
sI707
F5.0
sI715
F4.0
sI208
F4.0
sI216
F4.0
sI733
F4.0
sI736
F4.0
sI720
F5.0
sI235
F5.0
sI750
F4.0
sI761
F4.0
sI252
F4.0
sI253
F5.0
sI260
F5.0
sI261
F5.0
sI265
F5.0
sI778
F5.0
sI282
F4.0
sI801
F4.0
sI296
F5.0
sI314
F5.0
sI316
F4.0
sI224
F5.0
sI838
F5.0
sI329
F4.0
sI345
F5.0
sI858
F5.0
sI350
F5.0
sI357
F5.0
sI367
F5.0
sI368
F4.0
sI370
F4.0
sI888
F4.0
sI377
F4.0
sI379
F4.0
sI383
F4.0
sI898
F5.0
sI902
F4.0
sI905
F5.0
sI911
F4.0
sI912
F4.0
sI913
F4.0
sI919
F4.0
sI920
F4.0
sI921
F4.0
sI923
F5.0
sI412
F5.0
sI926
F4.0
sI417
F5.0
sI936
F4.0
sI428
F4.0
sI943
F5.0
sI432
F4.0
sI945
F4.0
sI951
F4.0
sI440
F4.0
sI953
F4.0
sI954
F5.0
sI955
F4.0
sI444
F4.0
sI961
F5.0
sI454
F5.0
sI969
F5.0
sI458
F4.0
sI973
F4.0
sI463
F4.0
sI468
F4.0
sI984
F5.0
sI474
F4.0
sI475
F5.0
sI480
F5.0
sI500
F4.0
sI509
F4.0
ssI233
(dp227
I608
F5.0
sI17
F5.0
sI780
F4.0
sI141
F4.0
ssI234
(dp228
I480
F3.5
sI356
F4.0
sI745
F4.0
sI720
F3.5
sI595
F3.5
sI500
F4.0
sI661
F3.5
sI953
F4.0
sI260
F4.5
sI541
F4.0
ssI235
(dp229
I5
F4.5
sI6
F4.0
sI648
F5.0
sI11
F3.5
sI141
F3.5
sI919
F5.0
sI920
F5.0
sI539
F3.5
sI161
F4.5
sI802
F4.5
sI292
F5.0
sI805
F4.0
sI296
F4.5
sI50
F5.0
sI628
F5.0
sI318
F5.0
sI832
F4.5
sI708
F4.0
sI457
F5.0
sI587
F4.5
sI588
F4.5
sI590
F4.5
sI592
F4.5
sI593
F3.5
sI597
F3.5
sI345
F3.5
sI733
F4.5
sI222
F4.5
sI608
F4.0
sI225
F4.5
sI356
F5.0
sI357
F4.5
sI236
F4.0
sI237
F5.0
sI552
F3.5
sI500
F4.5
sI62
F4.5
sI376
F3.5
sI377
F4.5
sI380
F4.0
ssI236
(dp230
I899
F4.5
sI7
F3.5
sI904
F5.0
sI908
F4.5
sI909
F4.5
sI910
F5.0
sI527
F3.5
sI912
F4.0
sI913
F4.0
sI915
F3.5
sI922
F4.5
sI923
F4.5
sI924
F5.0
sI541
F4.5
sI30
F4.5
sI32
F4.0
sI930
F5.0
sI931
F3.5
sI933
F4.0
sI936
F5.0
sI903
F5.0
sI942
F4.5
sI431
F4.0
sI945
F4.0
sI946
F5.0
sI926
F4.5
sI951
F4.5
sI943
F4.5
sI955
F5.0
sI928
F4.0
sI841
F4.0
sI588
F3.5
sI593
F4.0
sI599
F4.5
sI954
F4.0
sI750
F5.0
sI111
F4.5
sI969
F4.0
ssI237
(dp231
I608
F5.0
sI292
F3.5
sI198
F4.0
sI296
F4.5
sI588
F3.5
sI364
F3.5
sI272
F4.5
sI593
F4.0
sI595
F3.5
sI345
F4.0
sI260
F4.0
sI318
F4.5
ssI238
(dp232
I480
F3.5
sI593
F3.5
sI356
F4.5
sI318
F3.5
ssI239
(dp233
I514
F4.0
sI3
F4.0
sI516
F4.0
sI135
F4.0
sI520
F4.0
sI11
F4.0
sI141
F4.0
sI910
F4.0
sI785
F4.0
sI387
F4.0
sI157
F4.0
sI543
F5.0
sI497
F5.0
sI289
F5.0
sI934
F4.0
sI39
F5.0
sI892
F4.0
sI429
F5.0
sI413
F4.0
sI432
F4.0
sI433
F4.0
sI180
F4.0
sI837
F5.0
sI440
F4.0
sI500
F4.0
sI587
F4.0
sI708
F5.0
sI69
F5.0
sI327
F4.0
sI203
F4.0
sI588
F5.0
sI339
F4.0
sI852
F4.0
sI216
F4.0
sI476
F4.0
sI733
F4.0
sI223
F4.0
sI353
F4.0
sI356
F5.0
sI104
F4.0
sI380
F4.0
sI551
F4.0
sI367
F4.0
sI368
F5.0
sI232
F4.0
sI915
F5.0
sI372
F4.0
sI248
F4.0
sI673
F4.0
sI378
F4.0
sI252
F4.0
ssI240
(dp234
I1
F4.5
sI898
F4.5
sI261
F4.0
sI648
F3.5
sI905
F4.5
sI908
F4.0
sI141
F3.5
sI527
F4.5
sI16
F3.5
sI17
F4.0
sI150
F4.0
sI919
F5.0
sI410
F4.0
sI923
F4.0
sI924
F4.5
sI927
F3.5
sI32
F4.5
sI913
F4.5
sI34
F4.5
sI36
F4.0
sI165
F3.5
sI39
F4.5
sI296
F3.5
sI47
F4.0
sI904
F3.5
sI947
F4.0
sI950
F4.0
sI951
F4.5
sI440
F3.5
sI58
F4.0
sI955
F4.0
sI318
F4.0
sI708
F4.0
sI965
F4.0
sI457
F3.5
sI588
F4.0
sI593
F4.0
sI595
F3.5
sI348
F4.0
sI608
F5.0
sI357
F4.0
sI785
F4.0
sI236
F4.5
sI111
F5.0
sI936
F4.0
sI500
F4.0
sI508
F4.0
ssI241
(dp235
I194
F5.0
sI555
F4.0
sI36
F4.0
sI551
F4.0
sI296
F4.0
sI535
F5.0
sI778
F4.0
sI235
F4.0
sI34
F4.0
sI589
F4.0
sI50
F4.0
sI471
F4.0
sI318
F4.0
sI319
F5.0
ssI242
(dp236
I1
F5.0
sI6
F4.0
sI11
F5.0
sI527
F5.0
sI16
F5.0
sI529
F5.0
sI21
F5.0
sI22
F4.0
sI25
F4.0
sI541
F5.0
sI31
F4.0
sI34
F4.0
sI36
F5.0
sI47
F4.0
sI50
F5.0
sI52
F4.0
sI590
F5.0
sI592
F5.0
sI593
F4.0
sI597
F5.0
sI95
F4.0
sI608
F5.0
sI100
F4.0
sI110
F5.0
sI111
F5.0
sI628
F4.0
sI534
F4.0
sI648
F4.0
sI144
F4.0
sI150
F5.0
sI164
F5.0
sI165
F4.0
sI695
F4.0
sI185
F4.0
sI198
F4.0
sI205
F4.0
sI208
F5.0
sI215
F4.0
sI733
F5.0
sI750
F5.0
sI257
F4.0
sI260
F5.0
sI786
F4.0
sI280
F4.0
sI800
F5.0
sI296
F5.0
sI300
F4.0
sI316
F4.0
sI318
F5.0
sI329
F4.0
sI337
F5.0
sI852
F4.0
sI342
F4.0
sI858
F5.0
sI348
F5.0
sI349
F5.0
sI350
F4.0
sI352
F5.0
sI866
F4.0
sI356
F5.0
sI357
F4.0
sI361
F5.0
sI368
F4.0
sI371
F4.0
sI373
F5.0
sI377
F5.0
sI378
F4.0
sI380
F5.0
sI898
F5.0
sI899
F5.0
sI900
F5.0
sI903
F5.0
sI904
F5.0
sI908
F5.0
sI912
F5.0
sI913
F5.0
sI919
F5.0
sI920
F5.0
sI923
F5.0
sI924
F5.0
sI926
F5.0
sI415
F4.0
sI933
F5.0
sI422
F5.0
sI425
F4.0
sI432
F4.0
sI969
F5.0
sI949
F5.0
sI440
F5.0
sI953
F5.0
sI448
F4.0
sI457
F5.0
sI463
F4.0
sI471
F5.0
sI474
F4.0
sI480
F5.0
sI994
F5.0
sI507
F5.0
sI508
F5.0
ssI243
(dp237
I260
F5.0
sI261
F4.0
sI903
F4.0
sI904
F4.0
sI10
F3.5
sI910
F4.5
sI527
F3.5
sI914
F4.0
sI750
F4.0
sI919
F4.0
sI920
F4.0
sI541
F3.5
sI34
F3.5
sI551
F4.5
sI296
F4.5
sI47
F4.0
sI586
F3.5
sI588
F4.0
sI589
F4.0
sI592
F4.0
sI593
F5.0
sI733
F4.0
sI353
F3.5
sI356
F4.0
sI231
F4.0
sI364
F3.5
sI110
F4.0
sI368
F3.5
sI552
F3.5
sI500
F3.5
sI253
F4.0
ssI244
(dp238
I356
F5.0
sI589
F4.0
sI110
F3.5
sI527
F5.0
sI260
F5.0
sI318
F5.0
ssI245
(dp239
I480
F5.0
sI36
F4.0
sI909
F4.0
sI457
F5.0
sI556
F5.0
sI333
F4.0
sI110
F5.0
sI527
F5.0
sI50
F4.0
sI590
F5.0
sI246
F4.0
sI356
F5.0
sI858
F5.0
sI219
F4.0
sI733
F5.0
sI62
F5.0
ssI246
(dp240
I480
F4.0
sI673
F4.0
sI539
F5.0
sI589
F5.0
sI590
F4.0
ssI247
(dp241
I1
F4.0
sI260
F5.0
sI648
F5.0
sI10
F4.0
sI11
F4.0
sI780
F4.0
sI527
F5.0
sI786
F4.0
sI19
F4.0
sI163
F4.0
sI292
F4.0
sI293
F4.0
sI552
F4.0
sI553
F5.0
sI733
F4.0
sI434
F4.0
sI441
F4.0
sI316
F4.0
sI196
F4.0
sI69
F4.0
sI454
F4.0
sI457
F5.0
sI586
F4.0
sI333
F4.0
sI589
F4.0
sI208
F4.0
sI593
F5.0
sI344
F4.0
sI474
F5.0
sI349
F4.0
sI165
F4.0
sI480
F4.0
sI353
F4.0
sI356
F5.0
sI231
F4.0
sI104
F4.0
sI487
F4.0
sI110
F5.0
sI592
F4.0
sI377
F4.0
sI379
F4.0
sI380
F4.0
ssI248
(dp242
I32
F4.0
sI161
F5.0
sI356
F5.0
sI647
F4.0
sI904
F4.0
sI924
F5.0
sI266
F5.0
sI903
F4.0
sI780
F4.0
sI541
F5.0
sI110
F5.0
sI527
F5.0
sI750
F5.0
sI151
F4.0
sI316
F4.0
sI426
F4.0
ssI249
(dp243
I356
F5.0
sI165
F4.0
sI10
F4.0
sI11
F4.0
sI589
F4.0
sI590
F4.0
sI337
F5.0
sI500
F5.0
sI344
F4.0
sI508
F4.0
ssI250
(dp244
I356
F5.0
sI165
F4.5
sI527
F5.0
sI593
F5.0
sI858
F5.0
sI111
F4.0
sI318
F5.0
ssI251
(dp245
I356
F5.0
sI551
F5.0
sI296
F4.0
sI589
F4.0
sI110
F4.0
sI367
F4.0
sI260
F4.5
ssI252
(dp246
I32
F4.0
sI673
F5.0
sI260
F4.0
sI832
F4.0
sI135
F4.0
sI648
F4.0
sI7
F4.0
sI12
F5.0
sI653
F4.0
sI494
F4.0
sI733
F5.0
sI849
F4.0
sI736
F5.0
sI25
F5.0
sI858
F4.0
sI647
F4.0
sI95
F4.0
ssI253
(dp247
I1
F4.5
sI2
F4.0
sI260
F4.5
sI10
F4.0
sI524
F4.5
sI783
F3.5
sI784
F4.5
sI529
F4.0
sI914
F4.0
sI750
F3.5
sI150
F4.0
sI151
F4.5
sI802
F3.5
sI543
F4.5
sI34
F4.5
sI923
F4.5
sI805
F4.0
sI296
F4.0
sI553
F4.5
sI733
F4.0
sI953
F3.5
sI778
F3.5
sI318
F5.0
sI707
F3.5
sI454
F4.5
sI780
F3.5
sI333
F4.0
sI590
F4.5
sI589
F4.0
sI592
F4.0
sI593
F3.5
sI852
F4.5
sI597
F3.5
sI344
F4.0
sI858
F4.5
sI719
F4.0
sI349
F4.0
sI223
F4.0
sI480
F4.0
sI353
F4.5
sI356
F5.0
sI231
F4.5
sI104
F3.5
sI110
F5.0
sI367
F4.0
sI368
F4.0
sI552
F4.0
sI500
F3.5
sI62
F4.5
ssI254
(dp248
I750
F5.0
sI899
F4.0
sI260
F4.0
sI901
F4.0
sI903
F4.0
sI392
F5.0
sI265
F5.0
sI421
F4.0
sI146
F4.0
sI275
F4.0
sI149
F4.0
sI919
F4.0
sI154
F5.0
sI923
F4.0
sI156
F4.0
sI29
F5.0
sI287
F4.0
sI160
F4.0
sI34
F5.0
sI163
F4.0
sI165
F4.0
sI551
F4.0
sI924
F4.0
sI538
F5.0
sI50
F5.0
sI922
F4.0
sI176
F5.0
sI520
F4.0
sI178
F5.0
sI307
F4.0
sI521
F5.0
sI184
F4.0
sI954
F4.0
sI444
F4.0
sI318
F4.0
sI194
F4.0
sI196
F4.0
sI198
F4.0
sI609
F4.0
sI72
F4.0
sI457
F4.0
sI588
F4.0
sI162
F4.0
sI846
F4.0
sI337
F4.0
sI82
F5.0
sI595
F4.0
sI596
F5.0
sI342
F4.0
sI345
F4.0
sI904
F4.0
sI349
F4.0
sI223
F4.0
sI608
F5.0
sI481
F4.0
sI610
F4.0
sI593
F5.0
sI232
F5.0
sI233
F4.0
sI235
F4.0
sI494
F4.0
sI616
F4.0
sI500
F4.0
sI381
F4.0
ssI255
(dp249
I356
F3.5
sI680
F4.0
sI105
F4.0
sI714
F4.5
sI910
F4.0
sI953
F4.0
sI922
F4.5
sI923
F4.5
ssI256
(dp250
I608
F4.0
sI832
F4.0
sI141
F4.0
sI14
F4.0
sI628
F4.0
sI52
F4.0
sI25
F5.0
sI62
F4.0
ssI257
(dp251
I608
F4.0
sI260
F3.5
sI741
F5.0
sI296
F5.0
sI111
F5.0
sI912
F5.0
sI318
F4.0
ssI258
(dp252
I260
F4.0
ssI259
(dp253
I608
F4.0
sI356
F4.0
sI246
F5.0
ssI260
(dp254
I260
F5.0
sI231
F3.5
sI329
F5.0
sI589
F4.0
sI590
F4.0
sI356
F4.0
sI379
F3.5
sI765
F4.0
ssI261
(dp255
I32
F4.0
sI260
F4.0
sI231
F4.5
sI648
F3.5
sI380
F3.5
sI780
F4.5
sI589
F4.0
sI110
F5.0
sI592
F4.0
sI593
F4.5
sI50
F5.0
sI19
F5.0
sI590
F4.5
sI150
F3.5
sI377
F4.0
sI344
F5.0
sI356
F5.0
sI315
F3.5
sI316
F4.5
sI318
F5.0
ssI262
(dp256
I288
F4.0
sI968
F4.0
sI293
F4.0
sI296
F4.0
sI47
F5.0
sI586
F4.0
sI841
F3.5
sI111
F3.5
sI593
F5.0
sI595
F3.5
sI500
F3.5
sI247
F4.0
sI858
F3.5
sI175
F5.0
sI778
F3.5
ssI263
(dp257
I356
F4.0
sI517
F3.5
sI969
F4.0
sI586
F4.0
sI62
F3.5
sI110
F3.5
sI541
F3.5
sI593
F4.0
sI21
F3.5
sI920
F3.5
sI590
F4.0
sI509
F3.5
sI318
F4.0
sI597
F3.5
ssI264
(dp258
I356
F4.0
sI357
F5.0
sI39
F5.0
sI911
F4.0
sI920
F4.0
sI914
F5.0
sI440
F5.0
sI527
F5.0
ssI265
(dp259
I898
F5.0
sI899
F5.0
sI900
F5.0
sI904
F4.0
sI527
F4.0
sI921
F4.0
sI913
F5.0
sI21
F4.0
sI919
F5.0
sI920
F5.0
sI281
F5.0
sI154
F4.0
sI923
F5.0
sI922
F5.0
sI36
F4.0
sI936
F5.0
sI41
F4.0
sI942
F4.0
sI50
F5.0
sI952
F4.0
sI969
F5.0
sI858
F4.0
sI608
F5.0
sI750
F5.0
sI111
F4.0
sI370
F4.0
sI25
F4.0
sI373
F5.0
sI892
F4.0
ssI266
(dp260
I480
F4.0
sI457
F5.0
sI36
F5.0
sI838
F5.0
sI39
F5.0
sI364
F5.0
sI587
F4.0
sI300
F5.0
sI14
F4.0
sI367
F4.0
sI593
F4.0
sI50
F4.0
sI318
F4.0
sI150
F5.0
sI377
F4.0
sI356
F4.0
sI282
F4.0
sI527
F5.0
sI590
F5.0
sI62
F4.0
ssI267
(dp261
I260
F4.5
sI296
F5.0
sI47
F4.5
sI593
F4.0
sI50
F4.0
sI441
F5.0
sI318
F5.0
ssI268
(dp262
I1
F5.0
sI2
F3.5
sI260
F5.0
sI648
F3.5
sI905
F5.0
sI906
F4.0
sI11
F3.5
sI527
F5.0
sI912
F5.0
sI750
F4.5
sI150
F4.5
sI919
F5.0
sI410
F3.5
sI539
F5.0
sI924
F4.5
sI34
F4.5
sI923
F5.0
sI165
F3.5
sI39
F3.5
sI296
F5.0
sI551
F4.5
sI942
F3.5
sI47
F4.0
sI904
F4.0
sI50
F3.5
sI969
F4.5
sI953
F5.0
sI954
F5.0
sI317
F3.5
sI318
F3.5
sI608
F3.5
sI454
F3.5
sI457
F4.0
sI586
F5.0
sI588
F4.5
sI589
F5.0
sI592
F4.0
sI593
F5.0
sI466
F5.0
sI339
F3.5
sI858
F4.5
sI293
F4.0
sI480
F4.5
sI356
F5.0
sI231
F3.5
sI104
F3.5
sI508
F3.5
sI235
F4.5
sI364
F5.0
sI594
F5.0
sI110
F4.5
sI368
F3.5
sI936
F3.5
sI595
F4.5
sI377
F4.5
sI380
F4.0
ssI270
(dp263
I296
F4.5
sI50
F4.0
sI223
F4.0
sI260
F4.0
sI47
F4.0
ssI271
(dp264
I32
F4.0
sI260
F5.0
sI296
F4.5
sI457
F4.0
sI588
F3.5
sI589
F4.5
sI110
F4.0
sI16
F3.5
sI593
F5.0
sI50
F3.5
sI318
F3.5
ssI272
(dp265
I480
F3.5
sI1
F4.0
sI260
F4.0
sI592
F4.0
ssI273
(dp266
I1
F4.5
sI260
F5.0
sI296
F4.5
sI778
F4.0
sI593
F4.0
sI150
F3.5
sI919
F5.0
ssI274
(dp267
I608
F5.0
sI866
F3.5
sI293
F4.0
sI198
F3.5
sI296
F4.0
sI778
F4.0
sI555
F3.5
sI342
F3.5
sI471
F5.0
sI319
F4.0
ssI275
(dp268
I1
F5.0
sI3
F4.0
sI648
F4.5
sI16
F4.5
sI785
F3.5
sI293
F5.0
sI39
F4.5
sI50
F3.5
sI457
F4.5
sI441
F5.0
sI608
F4.0
sI585
F3.5
sI333
F4.5
sI589
F5.0
sI344
F4.5
sI858
F4.5
sI480
F5.0
sI356
F5.0
sI101
F4.5
sI231
F5.0
sI745
F4.5
sI364
F5.0
sI110
F5.0
sI367
F5.0
sI500
F5.0
sI377
F4.0
ssI276
(dp269
I592
F4.0
sI785
F4.0
ssI277
(dp270
I356
F5.0
sI589
F4.0
sI110
F5.0
sI377
F4.0
sI260
F5.0
sI858
F5.0
sI318
F5.0
ssI278
(dp271
I912
F4.0
sI971
F4.0
sI945
F4.0
sI296
F4.0
sI919
F5.0
sI908
F5.0
sI909
F4.0
sI750
F4.0
sI111
F4.0
sI80
F5.0
sI401
F4.0
sI936
F4.0
sI910
F5.0
sI759
F5.0
sI923
F4.0
sI541
F4.0
sI670
F4.0
ssI279
(dp272
I480
F5.0
sI588
F4.0
sI292
F5.0
sI457
F5.0
sI587
F5.0
sI236
F4.0
sI589
F4.0
sI110
F4.0
sI527
F5.0
sI593
F4.0
sI50
F5.0
sI590
F4.0
sI150
F4.0
sI377
F4.0
sI356
F5.0
sI539
F4.0
sI380
F4.0
sI318
F5.0
ssI280
(dp273
I260
F5.0
sI838
F5.0
sI380
F4.0
sI17
F5.0
sI58
F4.0
sI28
F5.0
ssI281
(dp274
I899
F4.5
sI260
F4.0
sI903
F5.0
sI904
F4.5
sI908
F4.5
sI527
F5.0
sI912
F5.0
sI150
F3.5
sI919
F5.0
sI923
F5.0
sI296
F4.5
sI969
F4.5
sI608
F4.5
sI457
F3.5
sI589
F4.5
sI590
F4.0
sI592
F3.5
sI593
F4.0
sI597
F4.0
sI858
F4.0
sI480
F4.0
sI356
F3.5
sI367
F4.5
sI380
F3.5
sI509
F4.5
ssI282
(dp275
I32
F3.5
sI1
F4.0
sI553
F3.5
sI260
F4.5
sI165
F4.0
sI296
F3.5
sI457
F4.0
sI648
F4.0
sI524
F5.0
sI110
F4.5
sI527
F5.0
sI593
F4.0
sI736
F3.5
sI500
F3.5
sI150
F4.5
sI377
F3.5
sI356
F4.5
sI474
F3.5
sI508
F4.0
sI349
F4.0
sI318
F5.0
ssI283
(dp276
I7
F3.5
sI265
F4.0
sI778
F4.0
sI527
F5.0
sI150
F4.0
sI32
F4.0
sI296
F4.5
sI50
F4.0
sI58
F4.0
sI318
F4.5
sI288
F3.5
sI457
F3.5
sI587
F3.5
sI720
F5.0
sI597
F3.5
sI475
F4.5
sI608
F4.0
sI356
F5.0
sI357
F3.5
sI745
F5.0
sI364
F3.5
sI508
F4.5
ssI284
(dp277
I32
F4.0
sI608
F4.0
sI802
F4.0
sI36
F4.0
sI5
F4.0
sI6
F5.0
sI103
F4.0
sI648
F4.0
sI79
F5.0
sI786
F4.0
sI628
F5.0
sI86
F4.0
sI100
F5.0
sI640
F4.0
sI733
F5.0
sI798
F4.0
sI805
F5.0
ssI285
(dp278
I1
F4.0
sI260
F5.0
sI10
F4.0
sI780
F4.0
sI653
F4.0
sI527
F5.0
sI366
F4.0
sI407
F4.0
sI157
F4.0
sI543
F4.0
sI32
F5.0
sI163
F4.0
sI198
F4.0
sI934
F4.0
sI551
F4.0
sI296
F4.0
sI170
F4.0
sI555
F4.0
sI558
F4.0
sI47
F5.0
sI176
F5.0
sI177
F5.0
sI50
F5.0
sI180
F4.0
sI457
F4.0
sI442
F4.0
sI188
F5.0
sI317
F4.0
sI288
F5.0
sI69
F4.0
sI70
F4.0
sI968
F5.0
sI329
F4.0
sI588
F4.0
sI590
F4.0
sI592
F4.0
sI593
F4.0
sI471
F5.0
sI858
F4.0
sI223
F5.0
sI608
F5.0
sI481
F4.0
sI611
F4.0
sI356
F5.0
sI293
F5.0
sI104
F4.0
sI60
F4.0
sI235
F5.0
sI110
F5.0
sI368
F4.0
sI500
F4.0
sI505
F4.0
sI253
F5.0
sI661
F5.0
ssI286
(dp279
I748
F4.0
sI150
F5.0
sI23
F4.0
ssI287
(dp280
I480
F5.0
sI1
F5.0
sI2
F5.0
sI955
F5.0
sI260
F4.0
sI588
F5.0
sI616
F4.5
sI329
F4.5
sI780
F5.0
sI364
F4.5
sI13
F4.5
sI494
F4.0
sI589
F5.0
sI648
F5.0
sI595
F5.0
sI919
F4.5
sI484
F3.5
sI911
F5.0
sI316
F5.0
sI733
F4.5
sI653
F5.0
ssI288
(dp281
I256
F4.0
sI2
F4.0
sI520
F5.0
sI780
F5.0
sI527
F5.0
sI19
F5.0
sI276
F4.0
sI593
F5.0
sI25
F4.0
sI539
F4.0
sI158
F5.0
sI288
F5.0
sI163
F4.0
sI165
F4.0
sI296
F5.0
sI736
F5.0
sI47
F5.0
sI440
F4.0
sI186
F5.0
sI316
F5.0
sI480
F4.0
sI454
F4.0
sI204
F5.0
sI589
F4.0
sI590
F4.0
sI208
F4.0
sI337
F4.0
sI466
F5.0
sI344
F5.0
sI442
F5.0
sI485
F4.0
sI224
F5.0
sI353
F5.0
sI227
F5.0
sI356
F5.0
sI357
F5.0
sI231
F4.0
sI364
F4.0
sI110
F5.0
sI367
F5.0
sI368
F5.0
sI552
F5.0
sI370
F5.0
sI508
F5.0
ssI289
(dp282
I837
F4.0
ssI290
(dp283
I260
F4.0
sI165
F4.5
sI616
F5.0
sI329
F5.0
sI10
F4.5
sI111
F4.0
sI145
F4.5
sI50
F4.5
sI150
F4.0
sI457
F4.5
sI380
F3.5
sI858
F5.0
sI47
F5.0
sI316
F5.0
sI293
F5.0
ssI291
(dp284
I941
F4.5
sI589
F4.5
sI590
F5.0
sI47
F4.5
sI249
F3.5
sI541
F5.0
sI318
F5.0
sI223
F4.0
ssI292
(dp285
I1
F4.0
sI2
F3.5
sI260
F4.5
sI5
F4.0
sI262
F4.5
sI648
F4.0
sI10
F4.0
sI11
F4.5
sI780
F4.5
sI141
F4.0
sI527
F5.0
sI16
F4.5
sI529
F4.0
sI915
F4.0
sI277
F4.0
sI150
F4.0
sI919
F5.0
sI153
F3.5
sI410
F4.0
sI539
F3.5
sI158
F4.0
sI261
F4.0
sI32
F4.5
sI832
F4.0
sI292
F4.5
sI454
F4.0
sI934
F4.5
sI39
F4.5
sI296
F5.0
sI47
F4.5
sI628
F3.5
sI50
F5.0
sI180
F4.5
sI441
F4.5
sI95
F3.5
sI62
F4.0
sI575
F4.0
sI805
F4.0
sI608
F4.5
sI70
F3.5
sI457
F4.0
sI586
F3.5
sI587
F4.0
sI588
F4.0
sI589
F4.0
sI208
F3.5
sI337
F4.5
sI339
F3.5
sI838
F4.0
sI597
F4.5
sI902
F4.0
sI471
F3.5
sI592
F3.5
sI858
F4.5
sI736
F4.5
sI223
F4.0
sI480
F3.5
sI353
F3.5
sI356
F5.0
sI593
F4.5
sI508
F3.5
sI364
F4.0
sI110
F4.0
sI367
F3.5
sI595
F4.0
sI500
F3.5
sI318
F5.0
sI376
F4.0
sI377
F4.0
sI380
F4.5
ssI293
(dp286
I1
F4.0
sI356
F3.5
sI741
F4.5
sI76
F3.5
sI589
F3.5
sI110
F3.5
sI653
F3.5
sI497
F4.0
sI147
F4.0
sI750
F4.0
sI345
F3.5
sI924
F4.0
sI541
F3.5
ssI294
(dp287
I1
F4.0
sI5
F3.5
sI7
F5.0
sI520
F4.5
sI10
F3.5
sI12
F4.0
sI527
F4.0
sI17
F4.0
sI531
F3.5
sI26
F3.5
sI539
F4.0
sI28
F4.5
sI541
F3.5
sI39
F4.0
sI552
F4.5
sI48
F3.5
sI62
F3.5
sI585
F4.0
sI588
F5.0
sI594
F4.0
sI595
F5.0
sI92
F3.5
sI605
F4.0
sI104
F3.5
sI619
F3.5
sI616
F4.0
sI107
F4.0
sI648
F4.0
sI650
F3.5
sI153
F4.0
sI160
F3.5
sI163
F4.0
sI969
F3.5
sI185
F3.5
sI708
F4.0
sI203
F4.0
sI224
F4.0
sI745
F5.0
sI551
F3.5
sI236
F4.0
sI237
F4.5
sI252
F4.5
sI260
F4.0
sI261
F3.5
sI262
F3.5
sI780
F4.5
sI270
F4.0
sI289
F4.0
sI805
F3.5
sI300
F3.5
sI313
F4.0
sI317
F3.5
sI830
F4.0
sI838
F4.5
sI338
F3.5
sI339
F4.5
sI355
F4.0
sI356
F4.0
sI360
F4.0
sI361
F4.0
sI364
F4.5
sI367
F4.0
sI368
F4.0
sI370
F3.5
sI376
F3.5
sI377
F4.0
sI380
F4.0
sI524
F3.5
sI898
F4.0
sI899
F5.0
sI900
F5.0
sI901
F3.5
sI903
F3.5
sI904
F4.0
sI906
F4.5
sI907
F4.0
sI908
F4.5
sI910
F4.0
sI911
F4.5
sI912
F4.0
sI914
F3.5
sI916
F4.0
sI917
F3.5
sI919
F4.0
sI920
F4.0
sI410
F4.0
sI412
F4.0
sI926
F4.0
sI930
F3.5
sI419
F3.5
sI933
F4.5
sI935
F3.5
sI945
F4.0
sI73
F4.0
sI440
F4.5
sI955
F4.5
sI454
F3.5
sI455
F3.5
sI457
F3.5
sI466
F3.5
sI468
F4.0
sI480
F4.0
sI497
F5.0
sI500
F4.0
ssI295
(dp288
I260
F5.0
sI6
F4.5
sI648
F4.5
sI10
F4.5
sI780
F4.0
sI527
F4.5
sI912
F4.0
sI150
F4.5
sI919
F4.0
sI539
F4.0
sI924
F4.0
sI541
F3.5
sI163
F4.5
sI165
F4.0
sI39
F4.0
sI296
F4.0
sI736
F3.5
sI95
F4.0
sI434
F4.0
sI47
F4.5
sI628
F4.0
sI50
F4.5
sI185
F3.5
sI186
F3.5
sI315
F3.5
sI316
F4.5
sI318
F4.5
sI832
F4.5
sI608
F4.0
sI457
F4.5
sI588
F4.5
sI589
F5.0
sI590
F4.0
sI208
F3.5
sI593
F4.5
sI466
F4.0
sI339
F3.5
sI597
F4.5
sI344
F4.5
sI858
F5.0
sI475
F4.0
sI733
F4.0
sI293
F4.5
sI480
F4.5
sI592
F4.5
sI356
F4.5
sI357
F3.5
sI231
F4.0
sI364
F4.0
sI110
F4.0
sI367
F3.5
sI370
F4.0
sI595
F4.0
sI500
F4.5
sI377
F4.0
sI380
F4.0
ssI296
(dp289
I833
F4.5
sI588
F5.0
sI575
F5.0
ssI297
(dp290
I515
F5.0
sI356
F4.0
sI296
F4.5
sI750
F4.5
sI111
F3.5
sI593
F3.5
sI910
F4.0
sI260
F4.0
sI858
F5.0
sI223
F5.0
ssI298
(dp291
I608
F5.0
sI2
F5.0
sI260
F4.0
sI741
F5.0
sI6
F3.5
sI778
F5.0
sI19
F4.0
sI318
F5.0
ssI299
(dp292
I599
F4.5
sI16
F4.5
sI532
F3.5
sI922
F5.0
sI47
F4.5
sI541
F4.0
sI32
F5.0
sI163
F4.5
sI166
F5.0
sI562
F3.5
sI175
F4.0
sI178
F3.5
sI180
F3.5
sI288
F5.0
sI581
F4.5
sI70
F4.5
sI839
F3.5
sI968
F4.0
sI714
F4.5
sI589
F4.0
sI592
F4.0
sI849
F3.5
sI471
F4.5
sI347
F4.0
sI223
F4.5
sI608
F5.0
sI488
F3.5
sI235
F5.0
sI29
F4.5
sI111
F4.5
sI117
F4.0
sI247
F4.0
ssI300
(dp293
I32
F4.5
sI480
F5.0
sI356
F4.5
sI589
F4.5
sI110
F5.0
sI593
F4.5
sI150
F4.5
sI260
F4.0
sI733
F5.0
ssI301
(dp294
I203
F4.0
ssI302
(dp295
I480
F4.0
sI588
F4.0
sI457
F4.0
sI586
F4.0
sI236
F4.0
sI590
F4.0
sI593
F5.0
sI595
F4.0
sI596
F4.0
sI539
F4.0
sI509
F5.0
ssI303
(dp296
I260
F4.0
sI265
F3.5
sI778
F4.0
sI527
F4.0
sI919
F4.0
sI920
F4.5
sI25
F3.5
sI282
F3.5
sI288
F3.5
sI296
F4.0
sI50
F3.5
sI440
F4.0
sI953
F4.0
sI318
F4.5
sI590
F3.5
sI593
F4.0
sI594
F3.5
sI858
F4.0
sI223
F4.0
sI608
F4.0
sI750
F3.5
sI62
F3.5
sI380
F3.5
sI509
F3.5
ssI304
(dp297
I608
F5.0
sI610
F3.5
sI923
F4.5
sI356
F4.5
sI296
F5.0
sI778
F5.0
sI235
F5.0
sI300
F4.5
sI914
F4.0
sI14
F4.0
sI175
F4.5
sI912
F4.0
sI904
F5.0
sI50
F4.5
sI150
F4.0
sI185
F3.5
sI25
F5.0
sI47
F5.0
sI924
F5.0
sI318
F5.0
sI223
F5.0
ssI305
(dp298
I347
F4.0
sI306
F4.0
sI307
F4.0
sI541
F4.0
ssI306
(dp299
I2
F4.0
sI515
F4.0
sI11
F4.0
sI524
F4.0
sI527
F5.0
sI16
F4.0
sI17
F4.0
sI19
F4.0
sI21
F4.0
sI25
F4.0
sI538
F4.0
sI539
F4.0
sI34
F4.0
sI39
F5.0
sI45
F4.0
sI47
F4.0
sI50
F4.0
sI52
F4.0
sI585
F4.0
sI587
F4.0
sI589
F4.0
sI593
F4.0
sI595
F4.0
sI597
F4.0
sI608
F4.0
sI628
F4.0
sI141
F4.0
sI150
F4.0
sI165
F4.0
sI373
F4.0
sI207
F4.0
sI733
F4.0
sI736
F4.0
sI231
F5.0
sI237
F4.0
sI260
F5.0
sI265
F4.0
sI778
F4.0
sI780
F4.0
sI784
F4.0
sI296
F4.0
sI299
F4.0
sI300
F4.0
sI318
F5.0
sI319
F4.0
sI832
F4.0
sI224
F4.0
sI333
F4.0
sI344
F4.0
sI345
F4.0
sI858
F4.0
sI349
F4.0
sI356
F5.0
sI357
F4.0
sI361
F4.0
sI364
F4.0
sI370
F4.0
sI830
F4.0
sI377
F4.0
sI380
F5.0
sI899
F5.0
sI902
F4.0
sI903
F4.0
sI904
F5.0
sI908
F4.0
sI910
F4.0
sI911
F4.0
sI914
F4.0
sI915
F4.0
sI916
F5.0
sI919
F4.0
sI412
F4.0
sI420
F4.0
sI933
F4.0
sI934
F4.0
sI924
F4.0
sI440
F5.0
sI953
F5.0
sI454
F4.0
sI457
F4.0
sI932
F4.0
sI475
F4.0
sI994
F4.0
sI492
F4.0
sI500
F4.0
sI508
F4.0
sI509
F4.0
ssI307
(dp300
I293
F3.5
sI296
F5.0
sI778
F5.0
sI527
F4.5
sI50
F5.0
sI858
F4.5
sI47
F4.0
sI318
F5.0
ssI308
(dp301
I261
F4.0
sI520
F5.0
sI266
F5.0
sI267
F5.0
sI524
F4.0
sI17
F4.0
sI280
F5.0
sI542
F4.0
sI543
F4.0
sI802
F5.0
sI419
F5.0
sI454
F5.0
sI39
F4.0
sI648
F5.0
sI70
F4.0
sI328
F4.0
sI203
F5.0
sI466
F4.0
sI339
F4.0
sI218
F5.0
sI477
F5.0
sI736
F5.0
sI743
F4.0
sI491
F5.0
sI368
F4.0
sI370
F4.0
sI376
F4.0
sI508
F4.0
sI253
F5.0
ssI309
(dp302
I608
F4.5
sI800
F4.0
sI260
F5.0
sI101
F5.0
sI903
F4.5
sI296
F4.5
sI457
F4.5
sI745
F5.0
sI333
F3.5
sI750
F5.0
sI527
F4.5
sI529
F3.5
sI50
F5.0
sI246
F4.0
sI471
F4.0
sI858
F5.0
sI923
F4.0
sI541
F5.0
sI318
F4.5
ssI310
(dp303
I256
F4.0
sI785
F3.5
sI246
F3.5
ssI311
(dp304
I514
F3.5
sI260
F4.0
sI6
F4.0
sI647
F4.0
sI11
F5.0
sI780
F4.5
sI527
F5.0
sI529
F5.0
sI914
F4.5
sI916
F4.5
sI21
F4.0
sI150
F5.0
sI920
F5.0
sI155
F4.5
sI800
F4.5
sI34
F4.5
sI539
F4.0
sI300
F3.5
sI45
F4.0
sI948
F3.5
sI440
F3.5
sI318
F4.5
sI608
F4.0
sI454
F4.5
sI457
F4.5
sI204
F3.5
sI589
F4.5
sI590
F5.0
sI720
F3.5
sI339
F3.5
sI852
F3.5
sI597
F5.0
sI475
F4.0
sI736
F4.5
sI480
F4.5
sI356
F5.0
sI357
F5.0
sI105
F4.0
sI235
F4.0
sI377
F5.0
sI380
F3.5
ssI312
(dp305
I1
F5.0
sI363
F5.0
sI6
F5.0
sI648
F4.0
sI265
F4.0
sI527
F5.0
sI532
F4.0
sI663
F5.0
sI25
F4.0
sI28
F5.0
sI541
F5.0
sI926
F5.0
sI162
F4.0
sI36
F4.0
sI39
F5.0
sI296
F5.0
sI171
F4.0
sI556
F4.0
sI45
F5.0
sI50
F5.0
sI585
F5.0
sI441
F5.0
sI509
F5.0
sI190
F5.0
sI736
F4.0
sI581
F5.0
sI457
F4.0
sI203
F4.0
sI589
F5.0
sI206
F5.0
sI593
F5.0
sI85
F4.0
sI858
F4.0
sI348
F4.0
sI349
F4.0
sI608
F5.0
sI866
F5.0
sI99
F5.0
sI357
F4.0
sI231
F4.0
sI105
F5.0
sI306
F4.0
sI111
F5.0
sI562
F4.0
sI372
F4.0
sI318
F4.0
sI246
F4.0
sI247
F4.0
sI377
F5.0
sI818
F4.0
sI380
F5.0
sI125
F5.0
sI597
F5.0
ssI313
(dp306
I1
F4.0
sI5
F3.5
sI135
F4.0
sI520
F3.5
sI10
F3.5
sI910
F4.0
sI527
F5.0
sI904
F4.0
sI788
F3.5
sI150
F3.5
sI539
F4.5
sI34
F4.0
sI165
F3.5
sI552
F3.5
sI47
F4.0
sI648
F4.0
sI381
F3.5
sI266
F3.5
sI318
F5.0
sI832
F4.0
sI198
F3.5
sI457
F4.5
sI778
F4.0
sI588
F4.5
sI589
F3.5
sI590
F4.0
sI339
F3.5
sI215
F3.5
sI345
F3.5
sI733
F4.5
sI480
F4.0
sI356
F4.5
sI357
F3.5
sI364
F5.0
sI110
F5.0
sI367
F3.5
sI595
F4.0
sI500
F3.5
sI376
F4.0
sI377
F3.5
sI380
F4.0
sI253
F4.0
ssI314
(dp307
I480
F4.5
sI356
F4.5
sI260
F5.0
sI318
F5.0
sI593
F4.5
ssI315
(dp308
I497
F4.0
sI922
F4.0
sI953
F4.0
ssI316
(dp309
I260
F4.0
sI589
F3.5
ssI317
(dp310
I480
F4.0
sI457
F5.0
sI356
F4.0
sI165
F4.0
sI454
F4.0
sI329
F5.0
sI208
F4.0
sI150
F4.0
sI380
F4.0
sI185
F4.0
sI316
F5.0
sI318
F4.0
ssI318
(dp311
I704
F5.0
sI737
F4.0
sI805
F4.0
sI832
F4.0
sI673
F4.0
sI648
F4.0
sI9
F4.0
sI778
F4.0
sI780
F5.0
sI784
F4.0
sI786
F4.0
sI852
F4.0
sI798
F4.0
sI95
F4.0
ssI319
(dp312
I480
F4.0
sI196
F4.0
sI11
F4.0
sI141
F5.0
sI110
F4.0
sI593
F4.0
sI153
F4.0
sI316
F4.0
ssI320
(dp313
I356
F4.0
sI296
F4.5
sI908
F4.0
sI527
F4.0
sI912
F5.0
sI904
F4.5
sI924
F3.5
sI541
F5.0
sI318
F4.0
ssI321
(dp314
I608
F4.0
sI800
F4.0
sI930
F4.0
sI707
F4.0
sI164
F4.0
sI293
F4.0
sI913
F5.0
sI551
F5.0
sI232
F5.0
sI296
F5.0
sI50
F4.0
sI21
F5.0
sI837
F4.0
sI568
F4.0
sI348
F4.0
sI319
F5.0
ssI322
(dp315
I451
F4.0
sI903
F5.0
sI906
F5.0
sI942
F4.0
sI912
F4.0
sI931
F5.0
sI924
F5.0
ssI323
(dp316
I832
F4.0
sI912
F5.0
sI236
F4.0
sI527
F4.5
sI784
F4.0
sI920
F5.0
sI186
F3.5
sI315
F3.5
sI858
F4.5
sI318
F4.5
ssI324
(dp317
I32
F3.5
sI1
F4.0
sI2
F4.0
sI260
F3.5
sI588
F4.0
sI551
F4.0
sI73
F4.5
sI364
F3.5
sI34
F5.0
sI110
F4.0
sI111
F3.5
sI141
F4.0
sI593
F4.0
sI500
F4.0
sI318
F4.0
sI150
F4.0
sI592
F4.0
sI356
F4.0
sI367
F4.0
sI590
F3.5
sI62
F3.5
ssI325
(dp318
I585
F4.0
sI31
F4.5
ssI326
(dp319
I969
F5.0
sI314
F5.0
sI60
F4.0
sI933
F4.0
sI919
F4.0
ssI327
(dp320
I32
F4.0
sI608
F5.0
sI260
F4.5
sI231
F4.5
sI296
F5.0
sI364
F4.0
sI47
F3.5
sI500
F3.5
sI223
F5.0
ssI328
(dp321
I1
F4.0
sI899
F4.0
sI260
F4.0
sI904
F4.0
sI919
F4.0
sI908
F4.0
sI141
F3.5
sI910
F4.0
sI150
F4.0
sI151
F3.5
sI34
F4.0
sI163
F3.5
sI316
F3.5
sI318
F4.5
sI736
F3.5
sI780
F3.5
sI588
F3.5
sI720
F4.5
sI595
F3.5
sI480
F3.5
sI745
F4.5
sI364
F3.5
sI110
F4.0
sI380
F3.5
ssI329
(dp322
I736
F4.0
sI1
F5.0
sI802
F5.0
sI260
F5.0
sI6
F5.0
sI7
F4.0
sI648
F4.0
sI780
F4.0
sI708
F4.0
sI25
F5.0
sI733
F4.0
ssI330
(dp323
I899
F4.0
sI389
F4.0
sI265
F5.0
sI527
F5.0
sI32
F4.0
sI293
F5.0
sI41
F5.0
sI301
F5.0
sI50
F4.0
sI58
F4.0
sI318
F4.0
sI457
F4.0
sI207
F4.0
sI80
F5.0
sI595
F4.0
sI213
F5.0
sI342
F4.0
sI350
F4.0
sI994
F4.0
sI483
F4.0
sI232
F4.0
sI110
F4.0
sI497
F4.0
sI373
F5.0
sI246
F5.0
ssI331
(dp324
I24
F4.0
sI527
F4.5
ssI332
(dp325
I145
F4.5
sI163
F3.5
sI70
F5.0
sI315
F3.5
ssI333
(dp326
I1
F4.0
sI356
F4.5
sI588
F3.5
sI589
F4.0
sI527
F5.0
sI912
F4.0
sI953
F4.0
sI858
F4.5
sI318
F5.0
ssI334
(dp327
I1
F5.0
sI260
F4.0
sI296
F5.0
sI356
F5.0
sI858
F5.0
sI318
F4.0
ssI335
(dp328
I969
F4.0
sI858
F5.0
sI922
F3.5
ssI336
(dp329
I356
F5.0
sI904
F5.0
sI908
F4.0
sI527
F5.0
sI953
F5.0
sI919
F5.0
sI260
F5.0
sI922
F4.0
sI926
F5.0
ssI337
(dp330
I329
F5.0
sI260
F4.0
sI541
F4.0
sI589
F5.0
ssI338
(dp331
I648
F4.0
sI527
F5.0
sI17
F4.0
sI150
F4.0
sI25
F4.0
sI410
F4.0
sI34
F4.0
sI36
F4.0
sI47
F4.0
sI318
F4.0
sI589
F5.0
sI337
F5.0
sI595
F4.0
sI224
F4.0
sI355
F4.0
sI356
F4.0
sI357
F4.0
sI593
F5.0
sI235
F4.0
sI364
F4.0
sI367
F4.0
sI62
F4.0
sI508
F4.0
sI509
F4.0
ssI339
(dp332
I356
F5.0
sI293
F5.0
sI266
F4.0
sI110
F4.5
sI47
F4.5
sI145
F3.5
sI377
F4.0
sI527
F5.0
sI861
F4.5
sI318
F5.0
ssI340
(dp333
I356
F5.0
sI293
F4.0
sI6
F4.0
sI296
F3.5
sI364
F5.0
sI47
F5.0
sI858
F5.0
sI318
F5.0
ssI341
(dp334
I14
F4.0
sI31
F4.5
ssI342
(dp335
I898
F5.0
sI899
F4.0
sI260
F4.0
sI902
F4.0
sI903
F4.0
sI904
F5.0
sI906
F4.0
sI908
F5.0
sI527
F5.0
sI912
F5.0
sI529
F5.0
sI916
F5.0
sI150
F5.0
sI919
F4.0
sI920
F5.0
sI25
F4.0
sI923
F5.0
sI924
F5.0
sI858
F5.0
sI800
F5.0
sI36
F4.0
sI934
F5.0
sI300
F4.0
sI50
F5.0
sI306
F5.0
sI308
F5.0
sI440
F4.0
sI948
F4.0
sI58
F5.0
sI318
F5.0
sI448
F4.0
sI321
F4.0
sI971
F5.0
sI593
F5.0
sI954
F5.0
sI953
F5.0
sI474
F5.0
sI911
F5.0
sI733
F4.0
sI608
F5.0
sI866
F5.0
sI337
F4.0
sI367
F4.0
sI373
F5.0
sI246
F5.0
sI509
F4.0
ssI343
(dp336
I32
F4.0
sI1
F5.0
sI866
F4.0
sI36
F4.0
sI6
F5.0
sI648
F4.0
sI745
F5.0
sI778
F5.0
sI780
F4.0
sI994
F5.0
sI733
F5.0
sI81
F4.0
sI852
F4.0
sI661
F4.0
sI25
F5.0
sI858
F5.0
sI605
F4.0
sI260
F5.0
ssI344
(dp337
I1
F4.0
sI515
F5.0
sI260
F5.0
sI517
F4.0
sI266
F5.0
sI268
F5.0
sI527
F4.0
sI529
F4.0
sI431
F5.0
sI156
F4.0
sI413
F4.0
sI543
F4.0
sI161
F4.0
sI290
F5.0
sI293
F4.0
sI296
F4.0
sI299
F5.0
sI47
F5.0
sI50
F5.0
sI52
F4.0
sI53
F5.0
sI440
F4.0
sI850
F5.0
sI778
F5.0
sI318
F5.0
sI194
F5.0
sI454
F4.0
sI353
F4.0
sI457
F4.0
sI588
F5.0
sI589
F4.0
sI337
F5.0
sI82
F4.0
sI474
F4.0
sI349
F4.0
sI350
F4.0
sI224
F5.0
sI225
F4.0
sI356
F5.0
sI357
F5.0
sI593
F5.0
sI232
F5.0
sI490
F4.0
sI364
F4.0
sI541
F5.0
sI110
F4.0
sI368
F4.0
sI497
F5.0
sI481
F4.0
sI500
F4.0
sI632
F5.0
sI507
F4.0
sI508
F4.0
sI253
F5.0
ssI345
(dp338
I1
F4.5
sI260
F4.0
sI903
F4.5
sI904
F4.0
sI141
F3.5
sI910
F4.0
sI527
F4.5
sI529
F4.0
sI25
F4.0
sI924
F3.5
sI32
F5.0
sI34
F4.0
sI296
F5.0
sI45
F3.5
sI47
F4.5
sI50
F4.5
sI318
F5.0
sI585
F3.5
sI588
F4.0
sI592
F3.5
sI593
F4.5
sI858
F5.0
sI223
F5.0
sI608
F5.0
sI353
F4.0
sI356
F3.5
sI235
F4.0
sI364
F4.5
sI110
F4.5
sI111
F5.0
sI62
F3.5
ssI346
(dp339
I368
F4.0
sI260
F5.0
sI485
F5.0
sI353
F4.0
sI520
F4.0
sI648
F4.0
sI555
F4.0
sI876
F5.0
sI589
F5.0
sI861
F4.5
sI112
F4.0
sI504
F4.0
sI741
F5.0
sI344
F3.5
sI185
F4.0
sI442
F4.0
sI379
F4.0
sI541
F5.0
sI735
F5.0
sI671
F5.0
ssI347
(dp340
I778
F3.5
sI858
F4.0
sI260
F4.5
sI786
F4.0
sI527
F4.5
ssI348
(dp341
I32
F5.0
sI523
F5.0
sI299
F5.0
sI356
F5.0
sI293
F4.0
sI678
F5.0
sI593
F4.0
sI73
F4.0
sI235
F5.0
sI175
F5.0
sI337
F5.0
sI562
F5.0
sI111
F5.0
sI574
F5.0
ssI349
(dp342
I480
F4.0
sI593
F4.0
ssI350
(dp343
I1
F4.0
sI36
F5.0
sI69
F5.0
sI454
F4.0
sI104
F5.0
sI356
F4.0
sI590
F5.0
sI50
F4.0
sI260
F4.0
sI318
F5.0
sI805
F5.0
ssI351
(dp344
I524
F5.0
sI908
F5.0
sI912
F5.0
sI277
F4.0
sI950
F5.0
sI951
F4.0
sI858
F5.0
sI94
F4.0
ssI352
(dp345
I32
F3.5
sI480
F4.5
sI260
F5.0
sI741
F4.0
sI551
F4.0
sI296
F4.0
sI47
F4.0
sI593
F4.0
sI318
F5.0
ssI353
(dp346
I1
F3.5
sI163
F3.5
sI356
F3.5
sI165
F3.5
sI593
F3.5
sI104
F3.5
sI908
F3.5
sI589
F3.5
sI110
F3.5
sI47
F3.5
sI296
F3.5
sI318
F4.0
sI858
F3.5
sI62
F3.5
sI293
F3.5
ssI354
(dp347
I1
F5.0
sI515
F4.0
sI265
F5.0
sI11
F5.0
sI527
F5.0
sI151
F5.0
sI410
F5.0
sI551
F4.0
sI44
F4.0
sI173
F4.0
sI477
F5.0
sI440
F5.0
sI442
F4.0
sI318
F5.0
sI457
F4.0
sI589
F5.0
sI592
F4.0
sI593
F5.0
sI466
F4.0
sI595
F4.0
sI596
F4.0
sI471
F5.0
sI475
F5.0
sI348
F5.0
sI349
F4.0
sI353
F5.0
sI357
F4.0
sI232
F5.0
sI235
F5.0
sI112
F5.0
sI497
F5.0
sI377
F4.0
sI380
F4.0
ssI355
(dp348
I260
F5.0
sI6
F4.0
sI648
F3.5
sI10
F3.5
sI527
F4.0
sI750
F3.5
sI919
F4.5
sI924
F5.0
sI541
F4.5
sI32
F4.0
sI292
F3.5
sI293
F4.5
sI551
F4.0
sI296
F4.5
sI50
F3.5
sI47
F5.0
sI904
F4.5
sI434
F3.5
sI442
F4.0
sI316
F4.0
sI778
F4.5
sI318
F5.0
sI454
F4.0
sI968
F4.5
sI589
F4.0
sI590
F4.0
sI592
F3.5
sI593
F4.5
sI902
F3.5
sI858
F5.0
sI733
F3.5
sI480
F3.5
sI356
F5.0
sI231
F3.5
sI508
F4.0
sI364
F4.0
sI110
F4.0
sI377
F4.0
sI380
F3.5
sI253
F4.5
ssI356
(dp349
I361
F4.5
sI994
F3.5
sI799
F3.5
ssI357
(dp350
I1
F5.0
sI265
F5.0
sI272
F4.0
sI19
F4.0
sI32
F5.0
sI161
F4.0
sI551
F5.0
sI48
F4.0
sI58
F5.0
sI581
F5.0
sI454
F4.0
sI203
F4.0
sI588
F5.0
sI592
F4.0
sI595
F5.0
sI342
F5.0
sI344
F4.0
sI223
F4.0
sI720
F5.0
sI231
F4.0
sI745
F5.0
sI364
F5.0
sI249
F5.0
sI253
F5.0
ssI358
(dp351
I1
F5.0
sI514
F4.0
sI899
F5.0
sI260
F5.0
sI902
F5.0
sI7
F4.0
sI954
F5.0
sI364
F4.0
sI778
F4.0
sI471
F5.0
sI908
F5.0
sI898
F5.0
sI910
F5.0
sI527
F5.0
sI144
F4.0
sI17
F5.0
sI788
F4.0
sI21
F4.0
sI921
F5.0
sI919
F5.0
sI900
F5.0
sI922
F5.0
sI802
F4.0
sI858
F5.0
sI926
F5.0
sI913
F5.0
sI34
F5.0
sI923
F5.0
sI933
F4.0
sI934
F4.0
sI39
F5.0
sI296
F5.0
sI556
F4.0
sI500
F4.0
sI942
F4.0
sI945
F4.0
sI50
F5.0
sI952
F4.0
sI52
F4.0
sI905
F5.0
sI440
F4.0
sI372
F4.0
sI58
F5.0
sI492
F4.0
sI318
F5.0
sI441
F4.0
sI907
F4.0
sI585
F4.0
sI587
F4.0
sI588
F5.0
sI589
F5.0
sI909
F4.0
sI592
F4.0
sI593
F5.0
sI594
F4.0
sI595
F5.0
sI597
F4.0
sI215
F5.0
sI608
F5.0
sI474
F5.0
sI911
F4.0
sI348
F5.0
sI953
F5.0
sI223
F5.0
sI224
F4.0
sI912
F5.0
sI928
F4.0
sI356
F5.0
sI357
F5.0
sI529
F5.0
sI951
F5.0
sI236
F4.0
sI493
F4.0
sI111
F5.0
sI371
F4.0
sI116
F5.0
sI246
F5.0
sI969
F4.0
sI509
F4.0
sI946
F4.0
ssI359
(dp352
I290
F3.5
sI364
F4.5
sI922
F3.5
sI527
F4.0
sI306
F4.5
sI307
F4.5
sI215
F4.0
sI58
F4.5
sI858
F3.5
sI318
F4.0
ssI360
(dp353
I608
F4.0
sI161
F5.0
sI904
F4.0
sI457
F5.0
sI111
F5.0
sI593
F5.0
sI50
F5.0
sI628
F4.0
sI474
F4.0
sI47
F4.0
sI924
F4.0
ssI361
(dp354
I3
F4.0
sI260
F5.0
sI647
F4.0
sI780
F5.0
sI653
F5.0
sI14
F4.0
sI783
F4.0
sI17
F5.0
sI788
F4.0
sI661
F4.0
sI25
F4.0
sI671
F4.0
sI673
F4.0
sI805
F4.0
sI41
F4.0
sI839
F5.0
sI52
F4.0
sI832
F4.0
sI66
F4.0
sI711
F4.0
sI74
F4.0
sI76
F4.0
sI88
F4.0
sI858
F4.0
sI736
F5.0
sI737
F4.0
sI107
F4.0
sI631
F4.0
sI761
F4.0
sI637
F4.0
ssI362
(dp355
I288
F4.0
sI356
F4.0
sI293
F5.0
sI70
F3.5
sI551
F5.0
sI296
F4.5
sI616
F3.5
sI903
F3.5
sI750
F4.0
sI592
F4.0
sI593
F5.0
sI50
F5.0
sI858
F4.0
sI541
F4.5
sI318
F5.0
ssI363
(dp356
I1
F5.0
sI899
F5.0
sI260
F5.0
sI901
F4.0
sI908
F4.0
sI527
F5.0
sI29
F4.0
sI919
F5.0
sI900
F4.0
sI541
F5.0
sI926
F5.0
sI32
F4.0
sI34
F5.0
sI551
F4.0
sI47
F5.0
sI48
F4.0
sI50
F4.0
sI948
F4.0
sI949
F4.0
sI608
F5.0
sI198
F4.0
sI588
F4.0
sI589
F5.0
sI720
F5.0
sI594
F5.0
sI595
F5.0
sI596
F5.0
sI783
F4.0
sI480
F4.0
sI616
F4.0
sI745
F5.0
sI364
F4.0
sI914
F5.0
sI750
F4.0
ssI364
(dp357
I318
F4.5
ssI365
(dp358
I480
F4.5
sI362
F3.5
sI364
F4.0
sI909
F5.0
sI914
F5.0
sI852
F4.0
sI150
F5.0
ssI366
(dp359
I24
F4.0
sI44
F3.5
ssI367
(dp360
I608
F4.5
sI260
F5.0
sI357
F4.0
sI457
F4.5
sI490
F4.0
sI555
F3.5
sI589
F4.5
sI750
F4.0
sI911
F3.5
sI969
F5.0
sI440
F4.0
sI95
F4.0
sI380
F4.5
sI541
F5.0
sI223
F3.5
ssI368
(dp361
I265
F4.0
sI260
F4.0
sI541
F5.0
sI593
F4.0
ssI369
(dp362
I527
F5.0
sI150
F4.0
sI282
F4.0
sI539
F4.0
sI32
F4.0
sI296
F4.0
sI47
F4.0
sI440
F4.0
sI318
F5.0
sI454
F4.0
sI457
F4.0
sI587
F5.0
sI588
F4.0
sI589
F4.0
sI590
F5.0
sI592
F4.0
sI339
F4.0
sI597
F4.0
sI474
F4.0
sI350
F4.0
sI480
F4.0
sI356
F5.0
sI364
F4.0
sI110
F5.0
sI253
F4.0
sI595
F4.0
sI500
F4.0
sI377
F4.0
sI509
F4.0
ssI370
(dp363
I32
F4.5
sI288
F4.0
sI260
F4.5
sI585
F4.0
sI924
F4.5
sI235
F4.0
sI44
F4.0
sI541
F3.5
sI110
F4.0
sI367
F3.5
sI912
F4.0
sI589
F4.0
sI151
F4.0
sI953
F4.5
sI527
F4.0
sI188
F4.0
sI509
F4.0
sI318
F5.0
ssI371
(dp364
I356
F5.0
sI293
F4.0
sI593
F4.5
sI296
F4.5
sI587
F4.0
sI589
F4.0
sI110
F4.5
sI47
F4.5
sI17
F4.5
sI318
F5.0
ssI372
(dp365
I955
F4.0
sI357
F4.0
sI902
F4.0
sI969
F4.0
sI907
F4.0
sI912
F4.0
sI945
F4.0
sI916
F4.0
sI597
F5.0
sI539
F4.0
ssI373
(dp366
I515
F4.0
sI260
F4.0
sI162
F5.0
sI265
F4.0
sI778
F5.0
sI527
F4.0
sI16
F4.0
sI921
F4.0
sI25
F4.0
sI538
F4.0
sI800
F4.0
sI34
F4.0
sI36
F4.0
sI39
F5.0
sI296
F5.0
sI555
F4.0
sI45
F4.0
sI50
F4.0
sI318
F5.0
sI457
F4.0
sI589
F4.0
sI858
F5.0
sI348
F4.0
sI608
F5.0
sI994
F5.0
sI111
F4.0
sI246
F5.0
ssI375
(dp367
I288
F4.0
sI480
F4.0
sI356
F4.0
sI454
F5.0
sI296
F4.0
sI329
F4.0
sI10
F4.0
sI349
F5.0
sI592
F4.0
sI593
F5.0
sI150
F5.0
sI457
F4.0
sI377
F5.0
sI380
F4.0
sI253
F5.0
ssI376
(dp368
I904
F4.0
sI910
F5.0
sI527
F5.0
sI912
F4.0
sI593
F5.0
sI926
F4.0
sI920
F5.0
sI858
F4.0
sI922
F5.0
sI318
F4.0
ssI377
(dp369
I595
F4.5
sI724
F5.0
sI542
F3.5
sI262
F4.0
ssI378
(dp370
I293
F4.0
sI902
F3.5
sI551
F4.0
sI296
F4.5
sI778
F4.5
sI903
F4.0
sI750
F4.0
sI527
F4.0
sI372
F3.5
sI318
F4.0
ssI379
(dp371
I32
F4.0
sI1
F3.5
sI356
F4.5
sI296
F4.5
sI457
F3.5
sI778
F4.5
sI589
F4.0
sI110
F4.0
sI47
F4.5
sI593
F4.0
sI527
F4.5
sI318
F5.0
ssI380
(dp372
I1
F4.0
sI260
F4.0
sI6
F4.0
sI647
F4.0
sI780
F4.0
sI16
F4.0
sI19
F4.0
sI21
F4.0
sI150
F4.0
sI25
F4.0
sI802
F4.0
sI750
F4.5
sI541
F4.0
sI543
F4.0
sI32
F5.0
sI161
F4.0
sI34
F4.0
sI293
F4.0
sI296
F5.0
sI924
F5.0
sI300
F4.0
sI47
F5.0
sI50
F5.0
sI316
F4.0
sI318
F4.0
sI832
F4.0
sI608
F4.0
sI322
F4.0
sI968
F4.0
sI588
F4.0
sI333
F4.0
sI590
F4.0
sI589
F4.0
sI592
F4.5
sI593
F5.0
sI858
F4.5
sI471
F4.0
sI344
F4.0
sI474
F4.0
sI733
F4.0
sI223
F5.0
sI480
F4.0
sI353
F4.0
sI356
F5.0
sI999
F4.0
sI104
F4.0
sI110
F5.0
sI628
F4.0
sI246
F4.0
sI379
F4.0
sI508
F4.0
sI253
F4.0
ssI381
(dp373
I832
F4.0
sI289
F5.0
sI914
F4.0
sI36
F5.0
sI5
F4.0
sI588
F5.0
sI786
F4.0
sI207
F4.0
sI720
F5.0
sI595
F5.0
sI339
F4.0
sI708
F5.0
sI697
F4.0
sI25
F5.0
sI858
F5.0
sI539
F4.0
sI412
F4.0
sI830
F4.0
ssI382
(dp374
I1
F3.5
sI34
F4.0
sI899
F5.0
sI260
F3.5
sI261
F5.0
sI7
F5.0
sI11
F5.0
sI48
F3.5
sI17
F4.0
sI595
F4.0
sI529
F4.0
sI953
F4.0
sI916
F4.0
sI605
F4.0
sI62
F3.5
ssI383
(dp375
I32
F5.0
sI1
F5.0
sI34
F5.0
sI260
F5.0
sI832
F4.0
sI296
F5.0
sI457
F5.0
sI648
F4.0
sI780
F4.0
sI494
F4.0
sI47
F5.0
sI628
F4.0
sI562
F4.0
sI52
F4.0
sI766
F5.0
sI150
F4.0
sI608
F5.0
sI356
F4.0
sI62
F4.0
ssI384
(dp376
I260
F4.5
sI648
F4.0
sI10
F3.5
sI145
F3.5
sI541
F4.0
sI288
F4.5
sI165
F3.5
sI296
F4.5
sI173
F4.0
sI47
F4.0
sI434
F4.0
sI442
F4.0
sI70
F4.0
sI589
F5.0
sI592
F4.0
sI466
F4.0
sI344
F3.5
sI733
F5.0
sI480
F3.5
sI353
F3.5
sI996
F3.5
sI485
F4.0
sI231
F4.0
sI110
F4.5
sI367
F3.5
sI377
F4.0
sI379
F3.5
sI380
F4.5
ssI385
(dp377
I515
F4.0
sI261
F4.0
sI6
F5.0
sI265
F4.0
sI11
F4.0
sI527
F4.0
sI16
F5.0
sI145
F4.0
sI21
F4.0
sI150
F4.0
sI151
F4.0
sI282
F4.0
sI288
F4.0
sI161
F4.0
sI36
F4.0
sI165
F4.0
sI39
F4.0
sI296
F5.0
sI555
F5.0
sI300
F4.0
sI45
F4.0
sI47
F5.0
sI50
F5.0
sI440
F4.0
sI315
F4.0
sI318
F5.0
sI608
F5.0
sI457
F4.0
sI589
F4.0
sI337
F5.0
sI593
F5.0
sI468
F4.0
sI474
F4.0
sI349
F5.0
sI350
F4.0
sI293
F4.0
sI480
F4.0
sI356
F5.0
sI357
F4.0
sI230
F5.0
sI231
F4.0
sI235
F5.0
sI111
F5.0
sI500
F4.0
sI377
F4.0
sI509
F4.0
ssI386
(dp378
I32
F4.0
sI508
F4.0
sI299
F4.0
sI306
F4.0
sI111
F4.0
sI16
F4.0
sI50
F4.0
sI308
F4.0
sI920
F4.0
sI25
F4.0
sI527
F5.0
sI92
F4.0
ssI387
(dp379
I897
F4.0
sI898
F5.0
sI515
F5.0
sI900
F4.0
sI901
F5.0
sI902
F4.0
sI300
F4.0
sI11
F4.0
sI908
F5.0
sI141
F4.0
sI910
F4.0
sI911
F5.0
sI912
F5.0
sI913
F4.0
sI914
F5.0
sI899
F5.0
sI916
F4.0
sI21
F4.0
sI918
F5.0
sI919
F5.0
sI920
F4.0
sI923
F5.0
sI924
F4.0
sI926
F5.0
sI929
F4.0
sI930
F5.0
sI931
F4.0
sI933
F4.0
sI934
F4.0
sI935
F5.0
sI936
F4.0
sI937
F5.0
sI938
F4.0
sI939
F4.0
sI428
F5.0
sI942
F5.0
sI945
F5.0
sI946
F5.0
sI52
F4.0
sI949
F5.0
sI950
F5.0
sI905
F5.0
sI948
F4.0
sI954
F5.0
sI318
F5.0
sI322
F5.0
sI907
F5.0
sI585
F4.0
sI940
F4.0
sI973
F5.0
sI909
F5.0
sI450
F4.0
sI593
F4.0
sI596
F5.0
sI953
F5.0
sI858
F5.0
sI348
F5.0
sI608
F5.0
sI962
F4.0
sI969
F5.0
sI951
F5.0
sI235
F4.0
sI750
F5.0
sI111
F5.0
sI915
F5.0
sI635
F5.0
ssI388
(dp380
I733
F4.0
sI363
F4.0
sI260
F4.5
sI150
F4.5
sI6
F5.0
sI648
F4.0
sI778
F5.0
sI663
F4.0
sI524
F4.0
sI14
F4.0
sI527
F5.0
sI272
F4.0
sI529
F4.0
sI866
F4.0
sI787
F5.0
sI788
F4.0
sI750
F4.0
sI22
F4.0
sI535
F4.0
sI850
F5.0
sI25
F4.0
sI538
F4.0
sI431
F4.0
sI924
F5.0
sI541
F5.0
sI159
F4.5
sI32
F4.0
sI163
F4.0
sI36
F4.0
sI919
F4.0
sI296
F5.0
sI858
F5.0
sI534
F4.0
sI300
F4.0
sI434
F4.0
sI47
F5.0
sI50
F5.0
sI440
F4.0
sI441
F4.0
sI479
F4.0
sI671
F4.0
sI318
F5.0
sI832
F4.0
sI608
F5.0
sI322
F4.0
sI991
F4.0
sI72
F5.0
sI457
F5.0
sI587
F4.0
sI923
F4.0
sI333
F4.0
sI590
F5.0
sI589
F4.0
sI337
F4.0
sI593
F4.0
sI852
F4.0
sI953
F4.0
sI474
F4.0
sI475
F4.0
sI349
F5.0
sI223
F4.0
sI480
F4.0
sI784
F4.0
sI482
F4.0
sI356
F4.0
sI101
F4.0
sI231
F5.0
sI235
F4.0
sI493
F4.0
sI110
F5.0
sI111
F5.0
sI920
F4.0
sI246
F5.0
sI759
F5.0
sI377
F4.0
sI507
F4.0
sI508
F5.0
sI125
F4.0
sI912
F4.0
ssI389
(dp381
I2
F4.0
sI5
F4.0
sI135
F4.0
sI10
F4.0
sI150
F4.0
sI151
F4.0
sI161
F4.0
sI292
F4.0
sI168
F4.0
sI434
F5.0
sI54
F4.0
sI185
F4.0
sI316
F4.0
sI266
F4.0
sI318
F5.0
sI74
F4.0
sI588
F4.0
sI333
F5.0
sI590
F5.0
sI207
F4.0
sI208
F4.0
sI595
F4.0
sI349
F4.0
sI95
F5.0
sI380
F5.0
sI110
F5.0
sI62
F4.0
sI248
F4.0
sI252
F4.0
ssI390
(dp382
I1
F4.0
sI3
F5.0
sI260
F5.0
sI517
F4.0
sI11
F5.0
sI780
F5.0
sI141
F5.0
sI17
F4.0
sI786
F4.0
sI21
F5.0
sI539
F5.0
sI802
F4.0
sI165
F4.0
sI296
F5.0
sI861
F4.0
sI316
F4.0
sI830
F4.0
sI608
F4.0
sI708
F4.0
sI838
F4.0
sI653
F4.0
sI736
F4.0
sI339
F5.0
sI858
F5.0
sI733
F4.0
sI480
F5.0
sI494
F4.0
sI112
F4.0
sI377
F5.0
sI380
F5.0
ssI391
(dp383
I515
F5.0
sI521
F4.0
sI522
F5.0
sI527
F5.0
sI272
F5.0
sI17
F4.0
sI531
F4.0
sI46
F4.0
sI534
F5.0
sI535
F5.0
sI280
F4.0
sI162
F5.0
sI35
F5.0
sI555
F4.0
sI300
F4.0
sI302
F4.0
sI347
F4.0
sI50
F5.0
sI58
F5.0
sI778
F5.0
sI318
F5.0
sI838
F4.0
sI728
F5.0
sI475
F4.0
sI222
F4.0
sI481
F4.0
sI357
F4.0
sI233
F4.0
sI144
F5.0
sI110
F4.0
sI497
F4.0
sI501
F4.0
sI892
F5.0
sI509
F5.0
ssI392
(dp384
I605
F4.0
ssI393
(dp385
I753
F3.5
sI235
F4.5
sI497
F4.0
sI920
F3.5
sI728
F3.5
sI187
F3.5
ssI394
(dp386
I32
F4.0
sI256
F3.5
sI912
F3.5
sI899
F3.5
sI165
F4.0
sI838
F4.5
sI296
F4.5
sI288
F3.5
sI333
F3.5
sI750
F3.5
sI47
F4.0
sI592
F3.5
sI648
F4.5
sI50
F4.5
sI500
F3.5
sI597
F3.5
sI914
F3.5
sI185
F3.5
sI733
F4.0
sI608
F5.0
sI357
F3.5
ssI395
(dp387
I260
F5.0
sI671
F5.0
ssI396
(dp388
I1
F5.0
sI515
F4.0
sI257
F4.0
sI648
F5.0
sI364
F4.0
sI12
F4.0
sI653
F4.0
sI15
F4.0
sI17
F4.0
sI150
F5.0
sI151
F5.0
sI29
F4.0
sI799
F4.0
sI161
F4.0
sI292
F4.0
sI553
F4.0
sI302
F4.0
sI50
F4.0
sI316
F4.0
sI880
F4.0
sI198
F4.0
sI780
F4.0
sI589
F4.0
sI590
F5.0
sI592
F4.0
sI593
F5.0
sI339
F4.0
sI468
F4.0
sI420
F4.0
sI475
F4.0
sI93
F4.0
sI480
F5.0
sI236
F4.0
sI494
F4.0
sI367
F4.0
sI368
F4.0
sI497
F5.0
sI595
F4.0
sI724
F4.0
sI252
F4.0
sI253
F4.0
ssI397
(dp389
I519
F3.5
ssI398
(dp390
I648
F4.0
sI173
F5.0
ssI399
(dp391
I194
F4.0
sI357
F4.0
sI296
F5.0
sI300
F4.0
sI593
F4.0
sI50
F4.0
sI471
F5.0
sI25
F4.0
sI509
F4.0
sI318
F4.0
ssI400
(dp392
I515
F4.0
sI527
F4.0
sI21
F4.0
sI150
F4.0
sI32
F4.0
sI34
F4.0
sI165
F4.0
sI39
F4.0
sI296
F5.0
sI47
F4.0
sI50
F5.0
sI457
F4.0
sI318
F5.0
sI608
F4.0
sI329
F4.0
sI586
F4.0
sI588
F4.0
sI590
F4.0
sI592
F4.0
sI593
F5.0
sI594
F5.0
sI595
F4.0
sI596
F4.0
sI348
F4.0
sI480
F5.0
sI356
F4.0
sI364
F4.0
sI110
F5.0
sI367
F4.0
sI377
F4.0
sI380
F4.0
ssI401
(dp393
I1
F5.0
sI610
F5.0
sI611
F5.0
sI260
F5.0
sI329
F5.0
sI594
F5.0
sI466
F4.0
sI674
F5.0
sI356
F5.0
sI924
F5.0
sI541
F5.0
sI382
F4.0
sI671
F5.0
ssI402
(dp394
I258
F3.5
sI587
F4.0
sI260
F4.0
sI780
F4.0
sI588
F4.0
sI908
F3.5
sI11
F4.5
sI364
F4.0
sI13
F4.5
sI239
F4.5
sI595
F4.0
sI150
F4.5
sI216
F4.0
sI356
F5.0
sI539
F4.5
ssI403
(dp395
I1
F4.0
sI188
F4.0
sI247
F5.0
ssI404
(dp396
I216
F4.0
sI593
F5.0
sI858
F5.0
sI6
F4.0
ssI405
(dp397
I897
F4.5
sI260
F5.0
sI904
F5.0
sI10
F3.5
sI780
F4.0
sI912
F5.0
sI947
F4.0
sI531
F4.0
sI916
F4.5
sI277
F4.0
sI920
F5.0
sI474
F4.0
sI931
F4.5
sI423
F5.0
sI969
F4.0
sI908
F4.5
sI951
F4.5
sI952
F5.0
sI315
F3.5
sI457
F5.0
sI586
F4.0
sI590
F4.5
sI339
F4.0
sI85
F4.0
sI858
F5.0
sI349
F4.0
sI350
F4.0
sI955
F4.0
sI356
F5.0
sI357
F4.0
sI105
F3.5
sI915
F4.5
sI509
F5.0
ssI406
(dp398
I1
F3.5
sI902
F4.5
sI908
F3.5
sI364
F3.5
sI750
F5.0
sI111
F5.0
sI912
F3.5
sI52
F4.5
sI858
F4.0
sI923
F3.5
sI924
F5.0
sI541
F4.0
ssI407
(dp399
I1
F4.0
sI388
F4.0
sI534
F5.0
sI265
F4.0
sI778
F5.0
sI14
F4.0
sI527
F4.0
sI144
F4.0
sI529
F5.0
sI150
F5.0
sI25
F4.0
sI538
F4.0
sI32
F4.0
sI162
F4.0
sI36
F4.0
sI549
F5.0
sI551
F5.0
sI296
F5.0
sI41
F5.0
sI171
F5.0
sI300
F5.0
sI50
F4.0
sI178
F5.0
sI52
F5.0
sI457
F4.0
sI58
F5.0
sI318
F4.0
sI319
F4.0
sI324
F4.0
sI581
F5.0
sI838
F4.0
sI73
F5.0
sI290
F4.0
sI334
F5.0
sI337
F4.0
sI342
F4.0
sI345
F5.0
sI348
F5.0
sI223
F4.0
sI608
F5.0
sI593
F4.0
sI745
F5.0
sI246
F5.0
sI377
F4.0
sI506
F5.0
sI509
F4.0
ssI408
(dp400
I514
F5.0
sI260
F5.0
sI903
F4.0
sI904
F4.0
sI265
F4.0
sI778
F5.0
sI780
F4.0
sI17
F4.0
sI18
F5.0
sI21
F5.0
sI47
F5.0
sI541
F5.0
sI671
F5.0
sI32
F4.0
sI39
F4.0
sI296
F4.0
sI555
F4.0
sI45
F4.0
sI175
F5.0
sI50
F5.0
sI180
F5.0
sI309
F5.0
sI314
F5.0
sI319
F5.0
sI327
F5.0
sI73
F5.0
sI345
F4.0
sI474
F5.0
sI733
F4.0
sI222
F5.0
sI223
F4.0
sI608
F4.0
sI866
F5.0
sI741
F4.0
sI680
F5.0
sI123
F5.0
ssI409
(dp401
I1
F5.0
sI264
F5.0
sI265
F5.0
sI268
F4.0
sI16
F4.0
sI21
F5.0
sI150
F4.0
sI280
F5.0
sI25
F4.0
sI154
F4.0
sI431
F4.0
sI30
F5.0
sI417
F4.0
sI34
F5.0
sI35
F4.0
sI296
F5.0
sI306
F5.0
sI46
F4.0
sI47
F5.0
sI50
F4.0
sI307
F5.0
sI308
F5.0
sI309
F5.0
sI318
F5.0
sI319
F5.0
sI194
F5.0
sI673
F5.0
sI331
F4.0
sI204
F4.0
sI290
F5.0
sI590
F4.0
sI213
F5.0
sI348
F5.0
sI477
F4.0
sI223
F4.0
sI272
F5.0
sI231
F4.0
sI232
F5.0
sI235
F4.0
sI110
F4.0
sI434
F4.0
sI85
F5.0
ssI410
(dp402
I32
F4.5
sI1
F5.0
sI260
F4.5
sI648
F5.0
sI380
F4.0
sI110
F5.0
sI500
F4.0
sI480
F5.0
sI377
F4.5
sI356
F5.0
sI316
F4.5
sI318
F5.0
ssI411
(dp403
I608
F4.0
sI105
F4.0
sI527
F5.0
sI24
F5.0
sI858
F4.0
sI318
F5.0
ssI412
(dp404
I588
F4.0
sI1
F4.0
sI364
F4.0
sI140
F4.0
sI754
F4.0
sI367
F4.0
sI50
F4.0
sI339
F4.0
sI736
F4.0
ssI413
(dp405
I800
F4.0
sI832
F4.0
sI708
F4.0
sI6
F5.0
sI7
F5.0
sI648
F4.0
sI780
F4.0
sI786
F4.0
sI852
F4.0
sI25
F4.0
sI733
F5.0
sI62
F4.0
sI95
F4.0
ssI414
(dp406
I969
F5.0
sI907
F4.0
sI28
F4.0
sI21
F4.0
sI589
F4.0
ssI415
(dp407
I480
F5.0
sI161
F4.0
sI34
F4.0
sI292
F5.0
sI454
F5.0
sI329
F4.0
sI10
F4.0
sI780
F4.0
sI110
F5.0
sI50
F5.0
sI457
F5.0
sI185
F4.0
sI736
F5.0
sI316
F5.0
sI349
F5.0
sI380
F5.0
ssI416
(dp408
I3
F4.0
sI7
F4.0
sI10
F4.0
sI11
F4.0
sI524
F4.0
sI216
F4.0
sI786
F4.0
sI22
F4.0
sI539
F4.0
sI543
F4.0
sI161
F4.0
sI165
F4.0
sI168
F4.0
sI733
F4.0
sI62
F5.0
sI450
F4.0
sI195
F4.0
sI457
F4.0
sI333
F4.0
sI593
F4.0
sI597
F4.0
sI344
F4.0
sI474
F5.0
sI349
F4.0
sI805
F4.0
sI225
F4.0
sI356
F4.0
sI235
F4.0
sI237
F4.0
sI246
F5.0
sI508
F4.0
sI381
F4.0
ssI417
(dp409
I608
F4.0
sI1
F3.5
sI260
F4.0
sI261
F3.5
sI832
F5.0
sI161
F3.5
sI457
F4.0
sI903
F4.0
sI780
F4.0
sI110
F5.0
sI529
F4.5
sI356
F4.0
sI923
F3.5
sI349
F4.0
ssI418
(dp410
I1
F3.5
sI648
F3.5
sI780
F4.5
sI783
F3.5
sI150
F4.0
sI158
F4.0
sI805
F4.0
sI47
F3.5
sI434
F3.5
sI736
F4.0
sI586
F4.0
sI589
F3.5
sI590
F3.5
sI339
F4.5
sI597
F5.0
sI733
F4.0
sI350
F3.5
sI95
F3.5
sI480
F5.0
sI356
F4.5
sI357
F3.5
sI364
F4.5
sI380
F4.0
ssI419
(dp411
I1
F4.5
sI34
F4.0
sI647
F3.5
sI105
F3.5
sI590
F3.5
sI527
F4.5
sI50
F4.0
sI21
F3.5
sI342
F4.5
sI858
F3.5
sI783
F4.0
sI508
F4.5
ssI420
(dp412
I32
F4.0
sI945
F4.0
sI898
F5.0
sI923
F4.0
sI529
F5.0
sI552
F5.0
sI362
F5.0
sI107
F4.0
sI908
F4.0
sI750
F5.0
sI144
F4.0
sI497
F4.0
sI562
F4.0
sI595
F4.0
sI903
F5.0
sI910
F4.0
sI342
F5.0
sI904
F5.0
sI828
F4.0
sI541
F4.0
ssI421
(dp413
I356
F4.0
sI454
F4.0
sI457
F4.0
sI11
F5.0
sI590
F5.0
sI110
F5.0
sI337
F4.0
sI350
F4.0
sI150
F4.0
sI151
F4.0
sI377
F4.0
sI316
F5.0
sI349
F5.0
sI318
F5.0
ssI422
(dp414
I608
F5.0
sI1
F5.0
sI34
F4.0
sI163
F4.0
sI36
F5.0
sI902
F5.0
sI39
F4.0
sI296
F5.0
sI356
F4.0
sI745
F5.0
sI300
F4.0
sI593
F5.0
sI858
F4.0
sI999
F5.0
sI597
F4.0
sI377
F4.0
sI25
F5.0
sI314
F5.0
sI509
F5.0
sI318
F5.0
sI671
F4.0
ssI423
(dp415
I903
F4.5
sI520
F3.5
sI778
F3.5
sI908
F4.0
sI16
F3.5
sI913
F4.5
sI750
F4.5
sI541
F4.5
sI32
F4.5
sI180
F3.5
sI678
F4.0
sI296
F4.5
sI431
F4.0
sI904
F4.0
sI52
F3.5
sI441
F4.0
sI318
F4.0
sI968
F4.0
sI953
F4.0
sI858
F4.5
sI223
F4.0
sI608
F4.0
sI743
F3.5
sI745
F4.5
sI110
F3.5
sI111
F5.0
sI112
F4.0
sI501
F5.0
sI247
F5.0
ssI424
(dp416
I745
F4.5
sI475
F4.5
sI910
F3.5
sI39
F3.5
ssI425
(dp417
I1
F4.5
sI260
F3.5
sI293
F3.5
sI266
F4.0
sI527
F5.0
sI368
F4.0
sI593
F4.5
sI50
F4.0
sI858
F4.0
ssI426
(dp418
I356
F4.5
sI293
F4.5
sI586
F3.5
sI780
F4.0
sI589
F3.5
sI527
F4.5
sI593
F3.5
sI150
F4.5
sI858
F4.5
sI47
F4.0
sI733
F3.5
ssI427
(dp419
I927
F5.0
sI910
F5.0
sI246
F5.0
sI919
F5.0
ssI428
(dp420
I608
F4.5
sI1
F5.0
sI260
F5.0
sI231
F4.0
sI296
F5.0
sI588
F4.0
sI586
F3.5
sI364
F5.0
sI589
F4.0
sI111
F5.0
sI16
F5.0
sI593
F4.5
sI50
F4.5
sI595
F3.5
sI344
F3.5
sI356
F3.5
sI858
F5.0
sI924
F5.0
sI592
F4.0
sI223
F4.5
ssI429
(dp421
I593
F4.0
sI123
F4.0
ssI430
(dp422
I1
F4.0
sI733
F4.0
sI260
F3.5
sI6
F4.0
sI648
F4.5
sI10
F3.5
sI141
F4.0
sI147
F4.5
sI21
F5.0
sI150
F4.0
sI25
F4.5
sI29
F5.0
sI32
F5.0
sI34
F3.5
sI292
F5.0
sI293
F5.0
sI296
F4.5
sI553
F4.0
sI555
F4.5
sI593
F4.0
sI47
F5.0
sI50
F5.0
sI185
F3.5
sI316
F4.0
sI778
F5.0
sI318
F5.0
sI608
F4.0
sI69
F4.0
sI968
F3.5
sI457
F5.0
sI714
F4.5
sI587
F4.0
sI588
F4.5
sI589
F4.5
sI590
F4.0
sI592
F3.5
sI337
F4.5
sI595
F3.5
sI597
F4.0
sI344
F4.0
sI858
F4.5
sI349
F4.5
sI741
F5.0
sI480
F4.0
sI356
F4.5
sI357
F4.0
sI231
F5.0
sI745
F5.0
sI235
F5.0
sI364
F5.0
sI110
F4.0
sI367
F4.0
sI500
F4.0
sI380
F5.0
sI253
F5.0
ssI431
(dp423
I1
F4.5
sI898
F4.5
sI899
F4.5
sI260
F5.0
sI5
F4.5
sI904
F4.0
sI908
F5.0
sI910
F5.0
sI527
F4.5
sI912
F4.0
sI17
F5.0
sI150
F4.0
sI919
F4.0
sI923
F4.0
sI928
F4.5
sI41
F5.0
sI47
F5.0
sI50
F5.0
sI953
F5.0
sI955
F4.0
sI318
F5.0
sI457
F4.5
sI587
F4.0
sI337
F5.0
sI215
F5.0
sI911
F4.0
sI223
F5.0
sI356
F4.5
sI529
F4.0
sI110
F5.0
sI497
F5.0
sI628
F5.0
sI246
F4.0
sI247
F4.0
ssI432
(dp424
I32
F5.0
sI1
F5.0
sI356
F4.0
sI293
F5.0
sI593
F5.0
sI296
F5.0
sI780
F5.0
sI47
F5.0
sI145
F4.0
sI50
F5.0
sI150
F4.5
sI858
F5.0
sI318
F5.0
ssI433
(dp425
I1
F4.5
sI260
F4.0
sI6
F5.0
sI527
F5.0
sI16
F4.5
sI924
F5.0
sI32
F4.0
sI293
F3.5
sI296
F5.0
sI555
F4.5
sI300
F4.0
sI47
F5.0
sI50
F3.5
sI318
F4.0
sI589
F4.5
sI592
F4.0
sI593
F4.5
sI858
F5.0
sI608
F5.0
sI356
F4.0
sI231
F4.5
sI235
F4.5
sI111
F5.0
sI380
F3.5
ssI434
(dp426
I1
F4.0
sI912
F5.0
sI515
F5.0
sI6
F4.0
sI648
F4.0
sI428
F4.0
sI778
F4.0
sI535
F4.0
sI527
F4.0
sI272
F4.0
sI17
F5.0
sI661
F4.0
sI534
F4.0
sI281
F5.0
sI280
F4.0
sI25
F5.0
sI538
F4.0
sI923
F5.0
sI28
F4.0
sI986
F4.0
sI32
F4.0
sI994
F5.0
sI34
F4.0
sI36
F5.0
sI679
F4.0
sI296
F5.0
sI412
F4.0
sI300
F5.0
sI431
F4.0
sI176
F4.0
sI904
F4.0
sI50
F5.0
sI52
F4.0
sI58
F5.0
sI991
F4.0
sI318
F4.0
sI832
F4.0
sI800
F4.0
sI194
F4.0
sI838
F5.0
sI457
F5.0
sI971
F4.0
sI162
F4.0
sI78
F4.0
sI589
F4.0
sI848
F4.0
sI594
F4.0
sI595
F5.0
sI852
F4.0
sI85
F4.0
sI599
F4.0
sI728
F4.0
sI804
F4.0
sI858
F5.0
sI475
F5.0
sI348
F4.0
sI733
F4.0
sI101
F5.0
sI608
F4.0
sI783
F4.0
sI866
F4.0
sI229
F4.0
sI913
F5.0
sI745
F5.0
sI750
F4.0
sI111
F4.0
sI497
F4.0
sI246
F4.0
sI893
F5.0
sI213
F4.0
ssI435
(dp427
I32
F5.0
sI260
F5.0
sI589
F5.0
sI750
F5.0
sI527
F4.0
sI720
F5.0
sI593
F4.0
sI924
F4.0
ssI436
(dp428
I608
F5.0
sI898
F4.0
sI910
F5.0
sI904
F5.0
sI909
F5.0
sI750
F5.0
sI111
F4.0
sI912
F4.0
sI334
F4.0
sI58
F4.0
sI923
F5.0
ssI437
(dp429
I588
F4.0
sI1
F4.0
sI150
F5.0
sI551
F4.0
sI232
F5.0
sI457
F4.0
sI364
F5.0
sI590
F4.0
sI296
F5.0
sI595
F5.0
sI246
F4.0
sI380
F4.0
ssI438
(dp430
I296
F5.0
sI50
F5.0
sI923
F4.0
sI318
F5.0
sI527
F4.5
ssI439
(dp431
I608
F4.0
sI198
F4.0
sI39
F4.0
sI968
F4.0
sI235
F4.0
sI45
F4.0
sI589
F4.0
sI593
F5.0
sI920
F5.0
sI858
F5.0
sI955
F4.0
sI316
F4.0
sI926
F5.0
sI223
F4.0
ssI440
(dp432
I1
F4.0
sI2
F4.0
sI150
F5.0
sI165
F4.0
sI47
F4.0
sI50
F4.0
sI316
F4.0
sI318
F5.0
sI589
F5.0
sI590
F5.0
sI593
F4.0
sI466
F4.0
sI474
F4.0
sI293
F5.0
sI480
F5.0
sI356
F4.0
sI485
F4.0
sI491
F5.0
sI364
F5.0
sI110
F5.0
sI370
F4.0
sI377
F4.0
sI380
F4.0
ssI441
(dp433
I260
F5.0
sI913
F3.5
sI150
F3.5
sI156
F4.0
sI541
F4.0
sI164
F4.5
sI296
F4.5
sI58
F5.0
sI59
F5.0
sI318
F3.5
sI194
F4.5
sI581
F5.0
sI457
F3.5
sI590
F3.5
sI80
F4.5
sI593
F4.0
sI213
F5.0
sI345
F4.5
sI858
F4.5
sI475
F4.5
sI94
F4.5
sI223
F4.5
sI356
F3.5
ssI442
(dp434
I1
F4.0
sI2
F4.0
sI3
F4.5
sI260
F5.0
sI266
F4.5
sI733
F4.0
sI780
F3.5
sI141
F4.5
sI527
F4.5
sI16
F4.5
sI150
F4.0
sI919
F5.0
sI153
F4.0
sI539
F4.5
sI858
F4.5
sI288
F4.5
sI161
F4.5
sI34
F3.5
sI36
F4.5
sI296
F4.5
sI553
F5.0
sI47
F4.5
sI318
F4.5
sI608
F4.0
sI454
F4.5
sI457
F4.5
sI586
F4.0
sI587
F4.0
sI588
F4.5
sI589
F4.0
sI590
F4.0
sI592
F4.5
sI593
F5.0
sI736
F3.5
sI595
F4.0
sI597
F4.5
sI344
F4.0
sI474
F4.0
sI349
F4.5
sI480
F4.5
sI481
F4.0
sI356
F5.0
sI231
F4.5
sI104
F4.5
sI491
F3.5
sI364
F4.5
sI110
F4.5
sI367
F4.5
sI500
F4.5
sI377
F4.0
sI380
F4.0
sI381
F4.0
ssI443
(dp435
I356
F4.5
sI293
F5.0
sI589
F5.0
sI593
F4.5
sI260
F4.5
sI541
F5.0
sI318
F5.0
sI741
F5.0
ssI444
(dp436
I902
F4.0
ssI445
(dp437
I480
F3.5
sI356
F5.0
sI296
F4.5
sI593
F3.5
sI502
F4.5
sI318
F5.0
ssI446
(dp438
I318
F5.0
ssI447
(dp439
I608
F4.0
sI161
F4.0
sI590
F4.0
sI36
F4.0
sI454
F4.0
sI105
F4.0
sI141
F4.0
sI110
F5.0
sI208
F4.0
sI593
F4.0
sI318
F4.0
sI150
F4.0
sI25
F4.0
sI282
F4.0
sI380
F4.0
sI62
F5.0
ssI448
(dp440
I480
F5.0
sI593
F5.0
sI260
F5.0
sI589
F5.0
ssI449
(dp441
I32
F4.0
sI225
F4.0
sI356
F5.0
sI454
F5.0
sI296
F5.0
sI364
F4.0
sI480
F4.0
sI300
F5.0
sI590
F5.0
sI47
F4.0
sI592
F5.0
sI593
F5.0
sI595
F4.0
sI318
F5.0
sI150
F4.0
sI457
F5.0
sI185
F4.0
sI380
F4.0
sI349
F4.0
sI62
F4.0
sI588
F5.0
ssI450
(dp442
I608
F5.0
sI296
F5.0
sI778
F4.5
sI908
F4.0
sI750
F4.5
sI111
F5.0
sI912
F4.0
sI593
F5.0
sI50
F5.0
sI527
F4.5
sI858
F5.0
sI47
F5.0
sI541
F4.5
sI29
F4.5
sI318
F4.0
ssI451
(dp443
I994
F5.0
sI260
F4.0
sI581
F5.0
sI908
F5.0
sI206
F4.0
sI52
F4.0
sI246
F5.0
sI541
F4.0
ssI452
(dp444
I1
F3.5
sI515
F5.0
sI6
F4.0
sI11
F4.0
sI14
F5.0
sI527
F4.0
sI16
F4.0
sI17
F4.0
sI531
F4.0
sI534
F4.0
sI539
F4.0
sI29
F4.0
sI34
F4.0
sI36
F5.0
sI43
F4.0
sI556
F4.0
sI562
F4.0
sI581
F4.0
sI587
F4.0
sI589
F4.0
sI590
F4.0
sI593
F5.0
sI94
F4.0
sI608
F5.0
sI529
F5.0
sI110
F4.0
sI111
F4.0
sI628
F4.0
sI647
F4.0
sI150
F4.0
sI165
F4.0
sI175
F4.0
sI969
F5.0
sI288
F4.0
sI195
F4.0
sI728
F4.0
sI222
F4.0
sI229
F4.0
sI230
F4.0
sI236
F4.0
sI750
F5.0
sI260
F4.0
sI265
F3.5
sI778
F4.0
sI780
F4.0
sI272
F3.5
sI279
F4.0
sI800
F4.0
sI802
F4.0
sI805
F4.0
sI296
F5.0
sI300
F4.0
sI306
F5.0
sI307
F5.0
sI308
F5.0
sI318
F5.0
sI337
F4.0
sI339
F4.0
sI858
F5.0
sI348
F3.5
sI349
F4.0
sI356
F4.0
sI357
F4.0
sI361
F4.0
sI371
F4.0
sI377
F4.0
sI898
F4.0
sI388
F4.0
sI902
F3.5
sI903
F4.0
sI904
F4.0
sI908
F4.0
sI910
F4.0
sI912
F5.0
sI913
F5.0
sI915
F4.0
sI920
F4.0
sI923
F4.0
sI932
F4.5
sI933
F3.5
sI943
F3.5
sI949
F4.5
sI440
F4.0
sI953
F4.0
sI457
F4.0
sI474
F4.0
sI475
F5.0
sI480
F5.0
sI500
F4.0
sI508
F5.0
ssI453
(dp445
I736
F4.0
sI258
F4.0
sI780
F4.0
sI457
F5.0
sI44
F4.0
sI589
F4.0
sI303
F4.0
sI368
F5.0
sI185
F5.0
sI153
F5.0
sI349
F5.0
ssI454
(dp446
I608
F5.0
sI260
F5.0
sI293
F5.0
sI296
F5.0
sI593
F4.0
sI50
F5.0
sI858
F5.0
sI318
F4.0
ssI455
(dp447
I480
F5.0
sI1
F3.5
sI356
F3.5
sI165
F3.5
sI780
F4.5
sI296
F4.0
sI457
F4.0
sI648
F4.0
sI364
F3.5
sI589
F4.5
sI47
F4.5
sI592
F4.0
sI520
F3.5
sI344
F4.5
sI377
F3.5
sI736
F4.0
ssI456
(dp448
I480
F4.5
sI1
F3.5
sI260
F5.0
sI356
F4.0
sI593
F3.5
ssI457
(dp449
I912
F4.0
sI903
F4.0
sI904
F4.0
sI47
F4.5
sI778
F4.0
sI908
F4.0
sI16
F3.5
sI147
F4.0
sI431
F4.0
sI924
F5.0
sI293
F5.0
sI296
F5.0
sI555
F4.5
sI175
F4.5
sI318
F5.0
sI319
F3.5
sI589
F3.5
sI216
F4.0
sI858
F4.0
sI223
F3.5
sI608
F5.0
sI97
F3.5
sI356
F3.5
sI104
F3.5
sI492
F3.5
sI111
F5.0
ssI458
(dp450
I1
F3.5
sI733
F3.5
sI539
F4.0
sI356
F5.0
sI165
F3.5
sI454
F4.0
sI296
F4.0
sI105
F3.5
sI10
F4.0
sI364
F4.0
sI110
F4.0
sI47
F4.0
sI593
F4.5
sI648
F4.5
sI590
F4.0
sI377
F4.0
sI858
F4.0
sI527
F4.0
sI541
F3.5
sI318
F5.0
sI597
F4.0
ssI459
(dp451
I32
F4.0
sI1
F5.0
sI3
F4.0
sI36
F4.0
sI6
F4.0
sI104
F4.0
sI780
F4.0
sI653
F4.0
sI14
F4.0
sI648
F4.0
sI628
F4.0
sI788
F5.0
sI25
F5.0
sI260
F5.0
sI733
F4.0
sI95
F4.0
ssI460
(dp452
I1
F4.5
sI898
F5.0
sI899
F5.0
sI4
F3.5
sI260
F4.5
sI904
F4.5
sI778
F4.0
sI908
F4.0
sI911
F4.0
sI784
F4.0
sI913
F4.0
sI916
F4.0
sI919
F4.0
sI281
F4.5
sI29
F4.0
sI671
F4.5
sI32
F4.0
sI162
F3.5
sI293
F4.0
sI551
F3.5
sI296
F4.0
sI45
F4.0
sI50
F4.5
sI950
F5.0
sI585
F4.0
sI441
F4.0
sI442
F3.5
sI95
F3.5
sI318
F5.0
sI457
F3.5
sI994
F3.5
sI592
F3.5
sI337
F4.5
sI595
F4.0
sI342
F4.5
sI471
F5.0
sI954
F4.0
sI223
F4.0
sI608
F4.0
sI912
F5.0
sI866
F3.5
sI357
F5.0
sI593
F4.0
sI745
F5.0
sI497
F5.0
sI562
F4.0
ssI461
(dp453
I1
F3.5
sI515
F3.5
sI260
F4.5
sI6
F4.0
sI778
F4.0
sI527
F4.0
sI912
F4.5
sI17
F4.5
sI899
F3.5
sI916
F4.0
sI919
F3.5
sI920
F4.0
sI47
F5.0
sI785
F4.0
sI29
F3.5
sI926
F3.5
sI543
F3.5
sI34
F3.5
sI539
F3.5
sI293
F4.0
sI39
F4.5
sI296
F4.5
sI551
F4.5
sI555
F3.5
sI303
F4.0
sI50
F4.0
sI180
F4.0
sI953
F4.5
sI318
F5.0
sI608
F4.0
sI322
F3.5
sI588
F4.0
sI333
F4.0
sI590
F4.0
sI589
F5.0
sI720
F4.0
sI593
F5.0
sI595
F4.5
sI852
F3.5
sI597
F4.5
sI377
F4.0
sI858
F5.0
sI223
F3.5
sI480
F5.0
sI356
F4.0
sI101
F3.5
sI529
F3.5
sI104
F3.5
sI745
F4.0
sI235
F4.5
sI236
F4.0
sI110
F4.0
sI111
F3.5
sI246
F4.0
sI553
F4.0
sI249
F3.5
sI923
F4.0
ssI462
(dp454
I356
F5.0
sI104
F4.5
sI587
F3.5
sI141
F4.0
sI785
F3.5
sI21
F3.5
sI246
F4.0
sI380
F3.5
sI597
F3.5
ssI463
(dp455
I260
F5.0
sI7
F4.0
sI904
F4.0
sI266
F4.0
sI908
F4.0
sI527
F5.0
sI17
F4.0
sI914
F4.0
sI915
F4.0
sI916
F4.0
sI919
F4.0
sI920
F4.0
sI541
F4.0
sI32
F4.0
sI293
F4.0
sI934
F4.0
sI551
F4.0
sI47
F4.0
sI50
F5.0
sI52
F4.0
sI316
F4.0
sI318
F5.0
sI608
F4.0
sI708
F4.0
sI587
F4.0
sI588
F4.0
sI589
F4.0
sI590
F5.0
sI592
F4.0
sI593
F5.0
sI595
F5.0
sI858
F5.0
sI736
F4.0
sI222
F4.0
sI223
F4.0
sI480
F4.0
sI353
F4.0
sI610
F4.0
sI357
F4.0
sI490
F4.0
sI110
F5.0
sI628
F4.0
sI380
F4.0
ssI464
(dp456
I256
F4.0
sI257
F5.0
sI260
F5.0
sI262
F5.0
sI10
F5.0
sI153
F5.0
sI410
F4.0
sI158
F4.0
sI163
F4.0
sI165
F4.0
sI39
F5.0
sI296
F5.0
sI434
F4.0
sI62
F5.0
sI198
F4.0
sI588
F5.0
sI204
F4.0
sI592
F4.0
sI339
F5.0
sI349
F4.0
sI222
F5.0
sI95
F5.0
sI610
F4.0
sI236
F4.0
sI595
F5.0
sI380
F4.0
ssI465
(dp457
I838
F5.0
sI39
F4.5
sI778
F5.0
sI17
F5.0
sI531
F3.5
sI661
F4.0
sI858
F5.0
ssI466
(dp458
I1
F5.0
sI898
F5.0
sI899
F5.0
sI260
F5.0
sI903
F4.0
sI904
F5.0
sI527
F5.0
sI912
F5.0
sI150
F4.0
sI919
F5.0
sI923
F5.0
sI34
F4.0
sI678
F4.0
sI39
F4.0
sI296
F4.0
sI41
F4.0
sI940
F5.0
sI50
F4.0
sI953
F5.0
sI954
F5.0
sI318
F5.0
sI608
F4.0
sI586
F4.0
sI588
F4.0
sI333
F4.0
sI592
F4.0
sI594
F5.0
sI595
F5.0
sI596
F5.0
sI858
F5.0
sI783
F4.0
sI223
F5.0
sI480
F4.0
sI848
F4.0
sI357
F5.0
sI616
F5.0
sI364
F5.0
sI497
F5.0
sI500
F4.0
sI246
F5.0
sI761
F4.0
ssI467
(dp459
I608
F5.0
sI928
F5.0
sI43
F4.0
sI903
F5.0
sI523
F4.0
sI590
F5.0
sI341
F4.0
sI858
F4.0
ssI468
(dp460
I1
F4.0
sI898
F3.5
sI515
F3.5
sI260
F3.5
sI6
F3.5
sI903
F4.0
sI904
F4.0
sI905
F3.5
sI778
F4.0
sI919
F4.0
sI908
F4.0
sI909
F3.5
sI910
F4.0
sI16
F3.5
sI17
F3.5
sI899
F3.5
sI661
F3.5
sI535
F3.5
sI920
F4.0
sI922
F3.5
sI923
F5.0
sI924
F4.5
sI541
F3.5
sI926
F3.5
sI930
F4.0
sI928
F3.5
sI34
F3.5
sI293
F3.5
sI296
F3.5
sI556
F3.5
sI47
F3.5
sI946
F4.0
sI947
F4.5
sI950
F4.0
sI951
F4.0
sI953
F3.5
sI954
F4.0
sI955
F4.0
sI318
F3.5
sI965
F4.5
sI326
F3.5
sI968
F4.0
sI457
F3.5
sI162
F4.0
sI337
F3.5
sI594
F4.0
sI596
F4.0
sI471
F4.0
sI858
F4.0
sI933
F3.5
sI608
F4.0
sI912
F3.5
sI913
F4.0
sI235
F3.5
sI364
F3.5
sI750
F4.0
sI111
F4.0
sI936
F3.5
sI246
F3.5
sI376
F3.5
ssI469
(dp461
I720
F4.0
sI170
F4.5
sI555
F4.5
sI838
F3.5
ssI470
(dp462
I224
F3.5
sI1
F3.5
sI261
F3.5
sI70
F3.5
sI969
F4.5
sI172
F4.0
sI913
F4.5
sI247
F3.5
sI29
F4.0
ssI471
(dp463
I480
F3.5
sI1
F3.5
sI260
F5.0
sI588
F3.5
sI10
F4.5
sI364
F4.0
sI589
F4.5
sI750
F3.5
sI527
F4.0
sI593
F4.5
sI594
F4.5
sI788
F4.0
sI405
F4.0
sI150
F4.5
sI919
F3.5
sI376
F3.5
sI356
F4.0
sI380
F3.5
sI541
F3.5
sI597
F3.5
ssI472
(dp464
I1
F5.0
sI514
F4.0
sI16
F4.0
sI17
F4.0
sI21
F4.0
sI25
F5.0
sI29
F4.0
sI34
F5.0
sI36
F4.0
sI39
F4.0
sI47
F4.0
sI562
F4.0
sI574
F4.0
sI69
F4.5
sI593
F5.0
sI594
F4.0
sI595
F5.0
sI599
F5.0
sI94
F4.0
sI955
F5.0
sI101
F4.0
sI529
F5.0
sI111
F4.0
sI121
F4.0
sI125
F5.0
sI144
F4.0
sI659
F4.0
sI661
F4.0
sI162
F5.0
sI678
F4.0
sI541
F5.0
sI968
F5.0
sI969
F5.0
sI708
F4.0
sI720
F5.0
sI211
F4.0
sI213
F4.0
sI293
F4.0
sI745
F5.0
sI551
F5.0
sI750
F5.0
sI246
F5.0
sI260
F4.0
sI785
F4.5
sI800
F4.0
sI290
F4.0
sI902
F4.0
sI296
F5.0
sI50
F4.0
sI223
F4.0
sI318
F5.0
sI322
F4.0
sI837
F4.0
sI841
F4.0
sI342
F5.0
sI345
F4.0
sI858
F5.0
sI356
F4.0
sI357
F5.0
sI363
F5.0
sI364
F4.0
sI377
F4.0
sI899
F4.0
sI390
F5.0
sI903
F5.0
sI904
F4.0
sI905
F4.0
sI906
F4.0
sI908
F5.0
sI910
F4.0
sI912
F5.0
sI913
F5.0
sI914
F5.0
sI915
F4.0
sI919
F5.0
sI920
F4.5
sI922
F5.0
sI923
F5.0
sI924
F4.0
sI926
F5.0
sI928
F5.0
sI930
F5.0
sI938
F4.0
sI942
F4.5
sI951
F5.0
sI441
F4.0
sI443
F4.0
sI449
F4.0
sI456
F4.0
sI457
F4.0
sI953
F5.0
sI467
F4.0
sI480
F4.0
sI493
F4.0
sI235
F4.0
sI501
F4.0
ssI473
(dp465
I2
F5.0
sI356
F5.0
sI104
F3.5
sI780
F5.0
sI364
F5.0
sI110
F5.0
sI145
F4.5
sI500
F5.0
sI377
F3.5
sI765
F4.0
ssI474
(dp466
I480
F4.0
sI898
F5.0
sI899
F5.0
sI260
F4.0
sI951
F4.0
sI909
F4.0
sI595
F5.0
sI919
F4.0
sI858
F5.0
sI316
F4.0
ssI475
(dp467
I480
F4.5
sI1
F4.5
sI260
F5.0
sI903
F4.0
sI296
F5.0
sI588
F3.5
sI589
F4.5
sI110
F4.0
sI111
F4.5
sI16
F4.0
sI592
F4.0
sI356
F4.5
sI858
F5.0
sI47
F4.0
sI924
F5.0
sI541
F4.0
ssI476
(dp468
I16
F5.0
sI593
F4.0
sI111
F4.0
ssI478
(dp469
I356
F5.0
sI293
F3.5
sI296
F5.0
sI778
F4.5
sI47
F3.5
sI260
F4.5
sI318
F5.0
ssI479
(dp470
I2
F4.0
sI104
F4.0
sI586
F4.0
sI367
F4.0
sI593
F5.0
sI150
F5.0
sI318
F5.0
ssI480
(dp471
I1
F5.0
sI2
F5.0
sI648
F3.5
sI778
F4.0
sI780
F4.5
sI653
F4.5
sI150
F4.5
sI539
F3.5
sI858
F4.0
sI158
F4.5
sI34
F3.5
sI165
F5.0
sI296
F4.0
sI434
F4.0
sI47
F4.0
sI904
F4.5
sI50
F4.5
sI185
F4.0
sI442
F4.0
sI318
F5.0
sI832
F5.0
sI608
F3.5
sI457
F4.5
sI586
F5.0
sI587
F3.5
sI588
F3.5
sI589
F5.0
sI590
F4.0
sI593
F4.5
sI339
F4.5
sI474
F4.0
sI736
F4.5
sI223
F4.0
sI480
F5.0
sI357
F4.0
sI485
F4.0
sI364
F5.0
sI110
F4.0
sI367
F3.5
sI595
F3.5
sI500
F4.0
sI377
F5.0
sI380
F3.5
ssI481
(dp472
I1
F4.0
sI899
F4.0
sI260
F5.0
sI903
F5.0
sI778
F4.5
sI908
F5.0
sI527
F3.5
sI16
F4.0
sI919
F4.0
sI922
F5.0
sI495
F4.5
sI924
F5.0
sI541
F5.0
sI32
F4.0
sI923
F5.0
sI293
F5.0
sI296
F5.0
sI307
F5.0
sI58
F5.0
sI955
F4.0
sI702
F5.0
sI288
F4.0
sI593
F4.0
sI858
F5.0
sI933
F5.0
sI608
F4.5
sI912
F4.0
sI356
F4.0
sI750
F5.0
sI111
F5.0
sI680
F4.0
sI318
F3.5
ssI482
(dp473
I32
F4.0
ssI483
(dp474
I356
F5.0
sI293
F4.0
sI648
F4.0
sI457
F3.5
sI778
F5.0
sI589
F4.0
sI110
F4.0
sI593
F5.0
sI50
F4.0
sI260
F4.0
sI380
F4.0
sI541
F5.0
sI318
F5.0
ssI484
(dp475
I32
F5.0
sI640
F4.0
sI3
F4.0
sI780
F5.0
sI648
F4.0
sI41
F4.0
sI76
F5.0
sI494
F4.0
sI719
F4.0
sI17
F5.0
sI724
F4.0
sI376
F5.0
sI788
F4.0
sI62
F5.0
ssI485
(dp476
I362
F4.5
sI31
F4.0
ssI486
(dp477
I480
F3.5
sI1
F5.0
sI260
F5.0
sI231
F5.0
sI778
F3.5
sI588
F4.0
sI589
F4.0
sI750
F5.0
sI356
F4.0
sI924
F5.0
sI541
F5.0
ssI487
(dp478
I2
F4.0
sI10
F4.0
sI11
F4.0
sI524
F5.0
sI527
F5.0
sI17
F5.0
sI22
F5.0
sI539
F4.0
sI542
F4.0
sI543
F4.0
sI32
F4.0
sI39
F4.0
sI47
F4.0
sI50
F5.0
sI585
F4.0
sI586
F4.0
sI587
F4.0
sI588
F4.0
sI590
F5.0
sI592
F4.0
sI593
F4.0
sI594
F4.0
sI595
F4.0
sI596
F4.0
sI597
F4.0
sI95
F5.0
sI110
F5.0
sI648
F5.0
sI141
F5.0
sI145
F4.0
sI147
F4.0
sI150
F4.0
sI161
F4.0
sI175
F4.0
sI31
F5.0
sI544
F4.0
sI195
F4.0
sI708
F4.0
sI207
F4.0
sI724
F4.0
sI218
F4.0
sI222
F5.0
sI736
F5.0
sI227
F4.0
sI230
F4.0
sI237
F4.0
sI257
F4.0
sI261
F5.0
sI265
F4.0
sI266
F5.0
sI270
F4.0
sI273
F4.0
sI277
F5.0
sI280
F5.0
sI289
F4.0
sI293
F4.0
sI296
F4.0
sI300
F4.0
sI304
F4.0
sI316
F4.0
sI329
F4.0
sI333
F4.0
sI339
F4.0
sI340
F4.0
sI349
F4.0
sI350
F4.0
sI356
F4.0
sI357
F4.0
sI364
F5.0
sI371
F4.0
sI377
F4.0
sI378
F4.0
sI381
F4.0
sI415
F4.0
sI421
F4.0
sI422
F4.0
sI431
F4.0
sI440
F4.0
sI74
F4.0
sI450
F4.0
sI453
F4.0
sI454
F4.0
sI455
F4.0
sI457
F5.0
sI471
F4.0
sI474
F5.0
sI475
F5.0
sI480
F4.0
sI489
F4.0
sI490
F4.0
sI497
F5.0
sI500
F5.0
sI508
F5.0
sI510
F4.0
ssI488
(dp479
I224
F4.0
sI608
F4.0
sI293
F4.5
sI743
F3.5
sI778
F4.5
sI47
F4.0
sI880
F4.5
sI319
F4.5
ssI489
(dp480
I41
F4.0
sI924
F4.0
sI915
F5.0
sI923
F4.0
sI910
F5.0
ssI490
(dp481
I653
F4.0
sI784
F4.0
sI6
F5.0
sI648
F4.0
sI9
F4.0
sI141
F4.0
sI494
F4.0
sI79
F4.0
sI112
F4.0
sI786
F4.0
sI628
F4.0
sI58
F4.0
sI733
F5.0
sI95
F4.0
ssI491
(dp482
I1
F5.0
sI34
F4.0
sI356
F4.0
sI357
F5.0
sI838
F5.0
sI39
F4.0
sI235
F4.0
sI125
F4.0
sI708
F4.0
sI345
F4.0
sI253
F4.0
ssI492
(dp483
I264
F4.0
sI265
F5.0
sI793
F4.0
sI154
F5.0
sI35
F4.0
sI306
F5.0
sI559
F5.0
sI690
F4.0
sI307
F5.0
sI820
F5.0
sI824
F4.0
sI308
F4.0
sI446
F5.0
sI77
F4.0
sI721
F4.0
sI854
F4.0
sI347
F4.0
sI232
F5.0
sI620
F4.0
sI495
F5.0
sI501
F5.0
sI247
F4.0
sI506
F4.0
ssI493
(dp484
I7
F4.0
sI905
F4.0
sI266
F4.0
sI11
F4.0
sI140
F4.0
sI17
F4.0
sI539
F4.0
sI28
F4.0
sI34
F5.0
sI691
F4.0
sI440
F5.0
sI58
F4.0
sI736
F4.0
sI838
F4.0
sI587
F5.0
sI207
F4.0
sI597
F4.0
sI858
F4.0
sI222
F4.0
sI351
F4.0
sI608
F4.0
sI357
F4.0
sI105
F4.0
sI613
F4.0
sI361
F4.0
sI377
F4.0
sI252
F4.0
sI509
F4.0
sI469
F4.0
ssI494
(dp485
I356
F3.5
sI296
F4.0
sI750
F4.0
sI527
F5.0
sI593
F4.5
sI50
F5.0
sI910
F4.0
sI260
F4.5
sI858
F5.0
sI318
F4.5
ssI495
(dp486
I480
F4.0
sI34
F5.0
sI292
F5.0
sI454
F4.0
sI329
F4.0
sI587
F5.0
sI364
F4.0
sI589
F4.0
sI110
F5.0
sI47
F4.0
sI208
F4.0
sI595
F4.0
sI590
F5.0
sI150
F4.0
sI457
F5.0
sI527
F5.0
sI356
F5.0
sI367
F4.0
sI349
F4.0
ssI496
(dp487
I2
F4.0
sI6
F5.0
sI11
F4.0
sI524
F5.0
sI20
F4.0
sI22
F5.0
sI23
F4.0
sI27
F4.0
sI31
F4.0
sI544
F4.0
sI553
F5.0
sI555
F4.0
sI61
F4.0
sI62
F5.0
sI71
F5.0
sI587
F5.0
sI588
F4.0
sI589
F5.0
sI590
F5.0
sI79
F4.0
sI593
F5.0
sI595
F4.0
sI597
F4.0
sI89
F4.0
sI95
F4.0
sI105
F5.0
sI110
F5.0
sI648
F5.0
sI140
F4.0
sI653
F4.0
sI150
F4.0
sI151
F5.0
sI158
F4.0
sI161
F4.0
sI539
F5.0
sI165
F4.0
sI168
F5.0
sI185
F5.0
sI204
F4.0
sI207
F4.0
sI208
F4.0
sI733
F5.0
sI293
F4.0
sI225
F4.0
sI227
F4.0
sI230
F4.0
sI236
F4.0
sI237
F4.0
sI240
F4.0
sI252
F4.0
sI253
F4.0
sI257
F4.0
sI266
F5.0
sI780
F5.0
sI271
F4.0
sI786
F5.0
sI277
F4.0
sI280
F4.0
sI281
F5.0
sI282
F4.0
sI802
F4.0
sI292
F5.0
sI805
F4.0
sI304
F4.0
sI315
F4.0
sI316
F5.0
sI318
F5.0
sI835
F5.0
sI329
F5.0
sI338
F5.0
sI349
F4.0
sI350
F4.0
sI356
F5.0
sI364
F5.0
sI368
F5.0
sI376
F4.0
sI380
F4.0
sI383
F4.0
sI434
F4.0
sI440
F4.0
sI442
F4.0
sI450
F4.0
sI457
F5.0
sI474
F4.0
sI480
F5.0
sI494
F5.0
sI500
F4.0
ssI497
(dp488
I265
F4.0
sI308
F5.0
sI246
F5.0
sI527
F5.0
ssI498
(dp489
I588
F4.5
sI357
F3.5
ssI499
(dp490
I162
F4.0
sI260
F4.0
sI903
F5.0
sI750
F5.0
sI111
F5.0
sI913
F5.0
sI50
F5.0
sI953
F4.0
sI858
F5.0
sI926
F4.0
ssI500
(dp491
I356
F5.0
sI362
F4.0
sI110
F3.5
sI497
F3.5
sI62
F3.5
sI708
F4.0
sI700
F4.0
sI586
F4.0
sI318
F4.5
ssI501
(dp492
I1
F5.0
sI36
F4.5
sI296
F5.0
sI745
F4.0
sI778
F5.0
sI364
F3.5
sI47
F5.0
sI593
F4.5
sI50
F3.5
sI356
F4.5
sI858
F5.0
sI318
F5.0
ssI502
(dp493
I1
F4.0
sI260
F4.0
sI778
F5.0
sI784
F4.0
sI785
F5.0
sI25
F5.0
sI541
F5.0
sI671
F5.0
sI32
F5.0
sI36
F5.0
sI296
F5.0
sI555
F4.0
sI50
F5.0
sI52
F4.0
sI697
F4.0
sI318
F5.0
sI194
F4.0
sI708
F4.0
sI198
F4.0
sI714
F5.0
sI589
F5.0
sI78
F4.0
sI337
F4.0
sI471
F4.0
sI858
F4.0
sI223
F5.0
sI608
F5.0
sI104
F4.0
sI745
F5.0
sI235
F4.0
sI750
F4.0
sI112
F4.0
sI246
F4.0
sI125
F4.0
ssI503
(dp494
I480
F4.0
sI1
F4.0
sI912
F4.0
sI260
F4.0
sI357
F4.0
sI527
F4.0
sI208
F3.5
sI593
F4.0
sI50
F4.0
sI953
F3.5
sI356
F4.0
sI858
F4.0
ssI505
(dp495
I898
F3.5
sI899
F3.5
sI260
F4.0
sI903
F3.5
sI904
F4.5
sI905
F4.0
sI908
F4.5
sI910
F3.5
sI911
F4.0
sI912
F4.5
sI919
F3.5
sI900
F3.5
sI922
F4.0
sI539
F3.5
sI926
F3.5
sI930
F3.5
sI923
F3.5
sI942
F3.5
sI945
F4.0
sI949
F3.5
sI953
F4.0
sI954
F4.0
sI318
F3.5
sI594
F3.5
sI597
F3.5
sI215
F3.5
sI527
F4.0
sI348
F3.5
sI994
F3.5
sI356
F4.0
sI750
F3.5
ssI506
(dp496
I344
F4.0
sI1
F4.0
sI858
F4.0
sI661
F4.0
ssI507
(dp497
I32
F4.0
sI673
F5.0
sI36
F5.0
sI780
F4.0
sI648
F4.0
sI745
F5.0
sI748
F4.0
sI783
F4.0
sI112
F4.0
sI18
F4.0
sI260
F5.0
sI832
F4.0
sI736
F5.0
sI62
F4.0
sI671
F5.0
ssI508
(dp498
I780
F4.0
sI141
F4.0
sI527
F5.0
sI21
F5.0
sI150
F5.0
sI539
F4.0
sI288
F4.0
sI161
F4.0
sI34
F5.0
sI296
F5.0
sI41
F5.0
sI300
F5.0
sI47
F5.0
sI50
F5.0
sI440
F4.0
sI316
F4.0
sI318
F5.0
sI457
F5.0
sI802
F4.0
sI593
F5.0
sI339
F4.0
sI471
F4.0
sI356
F5.0
sI230
F4.0
sI508
F5.0
sI500
F4.0
sI377
F4.0
sI380
F4.0
ssI509
(dp499
I515
F4.0
sI527
F5.0
sI16
F4.0
sI17
F4.0
sI21
F4.0
sI534
F4.0
sI535
F5.0
sI25
F4.0
sI28
F4.0
sI541
F4.0
sI32
F4.0
sI36
F4.5
sI41
F4.5
sI45
F3.5
sI47
F4.0
sI50
F5.0
sI52
F4.0
sI778
F4.0
sI68
F4.0
sI69
F3.5
sI588
F3.5
sI590
F5.0
sI593
F4.0
sI594
F3.5
sI94
F4.5
sI608
F4.5
sI101
F4.5
sI529
F4.0
sI110
F5.0
sI111
F5.0
sI125
F4.0
sI144
F4.0
sI151
F4.0
sI154
F4.0
sI162
F4.5
sI678
F4.0
sI194
F4.0
sI213
F4.0
sI214
F4.0
sI215
F4.5
sI223
F4.0
sI745
F4.0
sI235
F5.0
sI750
F4.0
sI246
F3.5
sI553
F4.0
sI249
F4.0
sI260
F5.0
sI266
F4.0
sI272
F4.5
sI281
F5.0
sI800
F4.0
sI290
F4.0
sI296
F5.0
sI300
F4.0
sI306
F4.0
sI307
F4.0
sI308
F4.0
sI318
F4.0
sI334
F4.0
sI337
F4.5
sI858
F5.0
sI348
F4.5
sI864
F4.0
sI356
F4.0
sI364
F3.5
sI373
F4.0
sI233
F4.5
sI889
F4.0
sI893
F4.0
sI388
F4.0
sI902
F3.5
sI904
F4.0
sI908
F4.0
sI909
F4.0
sI912
F5.0
sI919
F4.0
sI923
F5.0
sI924
F4.0
sI428
F4.0
sI441
F4.0
sI446
F5.0
sI457
F4.0
sI971
F4.0
sI471
F4.0
sI474
F4.0
sI475
F4.0
sI991
F4.0
sI994
F5.0
sI492
F4.0
sI501
F4.0
sI507
F4.0
ssI510
(dp500
I515
F4.0
sI265
F4.0
sI912
F5.0
sI529
F4.0
sI531
F4.0
sI21
F4.0
sI921
F4.0
sI36
F4.0
sI296
F4.0
sI428
F4.0
sI945
F4.0
sI58
F4.0
sI318
F4.0
sI845
F5.0
sI593
F5.0
sI84
F4.0
sI608
F4.0
sI483
F5.0
sI17
F4.0
sI488
F4.0
sI750
F5.0
sI232
F4.0
sI246
F4.0
sI509
F5.0
ssI511
(dp501
I11
F4.0
sI16
F5.0
sI21
F5.0
sI150
F4.0
sI280
F5.0
sI25
F4.0
sI282
F4.0
sI31
F4.0
sI36
F5.0
sI293
F4.0
sI296
F5.0
sI300
F5.0
sI50
F5.0
sI58
F5.0
sI318
F5.0
sI590
F5.0
sI720
F5.0
sI337
F4.0
sI342
F5.0
sI94
F4.0
sI223
F4.0
sI608
F5.0
sI100
F5.0
sI237
F4.0
sI111
F5.0
sI246
F5.0
ssI512
(dp502
I356
F5.0
sI318
F5.0
ssI513
(dp503
I480
F4.0
sI161
F5.0
sI356
F4.0
sI296
F5.0
sI110
F5.0
sI527
F5.0
sI593
F5.0
sI595
F4.0
sI151
F5.0
sI349
F4.0
sI318
F5.0
ssI514
(dp504
I1
F4.0
sI515
F4.0
sI529
F4.0
sI535
F4.0
sI25
F5.0
sI538
F4.0
sI29
F5.0
sI32
F4.0
sI34
F4.0
sI36
F4.0
sI555
F4.0
sI45
F4.0
sI47
F4.0
sI50
F5.0
sI52
F4.0
sI574
F4.0
sI588
F4.0
sI78
F4.0
sI592
F4.0
sI593
F4.0
sI594
F4.0
sI596
F4.0
sI92
F4.0
sI608
F5.0
sI613
F4.0
sI111
F5.0
sI117
F4.0
sI653
F4.0
sI147
F4.0
sI661
F4.0
sI150
F4.0
sI151
F4.0
sI156
F4.0
sI159
F4.0
sI162
F5.0
sI175
F5.0
sI176
F5.0
sI288
F5.0
sI194
F4.0
sI720
F5.0
sI223
F5.0
sI741
F4.0
sI233
F5.0
sI750
F5.0
sI753
F4.0
sI247
F5.0
sI249
F4.0
sI253
F4.0
sI766
F5.0
sI260
F5.0
sI265
F4.0
sI778
F5.0
sI272
F5.0
sI800
F5.0
sI293
F4.0
sI296
F5.0
sI299
F4.0
sI562
F5.0
sI314
F4.0
sI318
F5.0
sI319
F5.0
sI322
F4.0
sI337
F4.0
sI851
F4.0
sI342
F4.0
sI350
F4.0
sI356
F4.0
sI357
F4.0
sI362
F4.0
sI365
F4.0
sI368
F4.0
sI371
F4.0
sI745
F4.0
sI541
F5.0
sI902
F4.0
sI908
F5.0
sI909
F5.0
sI910
F4.0
sI919
F4.0
sI923
F5.0
sI924
F5.0
sI417
F4.0
sI426
F4.0
sI953
F4.0
sI955
F4.0
sI446
F5.0
sI448
F4.0
sI965
F4.0
sI457
F4.0
sI590
F4.0
sI471
F4.0
sI480
F4.0
sI493
F4.0
sI506
F4.0
sI507
F4.0
sI509
F5.0
ssI515
(dp505
I169
F5.0
sI519
F4.0
ssI516
(dp506
I640
F4.0
sI6
F4.0
sI7
F4.0
sI10
F4.0
sI140
F4.0
sI527
F5.0
sI786
F4.0
sI21
F5.0
sI22
F5.0
sI25
F5.0
sI154
F4.0
sI155
F4.0
sI30
F4.0
sI31
F4.0
sI32
F4.0
sI161
F4.0
sI539
F4.0
sI292
F4.0
sI165
F4.0
sI296
F5.0
sI135
F4.0
sI47
F4.0
sI318
F5.0
sI587
F4.0
sI196
F4.0
sI326
F4.0
sI353
F4.0
sI203
F4.0
sI589
F4.0
sI590
F4.0
sI337
F5.0
sI595
F4.0
sI852
F4.0
sI597
F4.0
sI344
F4.0
sI218
F4.0
sI349
F4.0
sI95
F4.0
sI736
F5.0
sI225
F4.0
sI356
F4.0
sI293
F4.0
sI230
F5.0
sI357
F4.0
sI232
F4.0
sI110
F4.0
sI593
F5.0
sI741
F4.0
sI446
F4.0
sI494
F4.0
sI508
F5.0
sI253
F4.0
sI382
F4.0
ssI517
(dp507
I2
F5.0
sI266
F5.0
sI11
F5.0
sI527
F5.0
sI17
F5.0
sI539
F4.0
sI420
F4.0
sI165
F4.0
sI39
F4.0
sI173
F4.0
sI47
F5.0
sI434
F5.0
sI185
F5.0
sI186
F5.0
sI316
F4.0
sI317
F5.0
sI587
F5.0
sI588
F5.0
sI589
F4.0
sI590
F5.0
sI208
F5.0
sI595
F5.0
sI597
F4.0
sI344
F4.0
sI95
F4.0
sI480
F4.0
sI356
F5.0
sI357
F5.0
sI236
F5.0
sI110
F5.0
sI367
F4.0
sI500
F5.0
sI377
F5.0
sI380
F4.0
sI253
F4.0
ssI518
(dp508
I1
F5.0
sI2
F4.0
sI9
F4.0
sI11
F5.0
sI13
F5.0
sI17
F5.0
sI22
F4.0
sI539
F5.0
sI34
F5.0
sI39
F4.0
sI552
F4.0
sI555
F4.0
sI47
F5.0
sI54
F4.0
sI575
F5.0
sI586
F5.0
sI587
F4.0
sI588
F4.0
sI589
F4.0
sI593
F5.0
sI594
F4.0
sI595
F5.0
sI596
F4.0
sI597
F4.0
sI605
F4.0
sI95
F4.0
sI608
F5.0
sI529
F4.0
sI616
F4.0
sI104
F4.0
sI628
F4.0
sI648
F4.0
sI653
F4.0
sI661
F4.0
sI663
F5.0
sI158
F4.0
sI673
F5.0
sI169
F4.0
sI708
F5.0
sI709
F5.0
sI711
F4.0
sI203
F4.0
sI733
F5.0
sI222
F5.0
sI223
F5.0
sI736
F4.0
sI225
F4.0
sI230
F5.0
sI239
F4.0
sI252
F5.0
sI253
F5.0
sI260
F5.0
sI265
F4.0
sI780
F5.0
sI270
F4.0
sI783
F4.0
sI273
F5.0
sI788
F4.0
sI282
F4.0
sI798
F4.0
sI288
F4.0
sI289
F4.0
sI802
F5.0
sI292
F4.0
sI805
F5.0
sI828
F4.0
sI296
F5.0
sI316
F4.0
sI317
F4.0
sI318
F5.0
sI836
F4.0
sI141
F4.0
sI337
F5.0
sI339
F5.0
sI342
F4.0
sI344
F4.0
sI345
F4.0
sI356
F5.0
sI742
F5.0
sI361
F4.0
sI362
F5.0
sI364
F4.0
sI367
F4.0
sI368
F4.0
sI372
F4.0
sI830
F4.0
sI377
F4.0
sI899
F5.0
sI900
F4.0
sI914
F4.0
sI919
F4.0
sI920
F4.0
sI415
F4.0
sI932
F4.0
sI434
F4.0
sI953
F5.0
sI450
F4.0
sI455
F4.0
sI457
F5.0
sI986
F4.0
sI480
F5.0
sI481
F4.0
sI998
F4.0
sI494
F4.0
sI500
F4.0
sI508
F5.0
ssI519
(dp509
I288
F4.5
sI608
F4.0
sI260
F5.0
sI593
F4.0
sI104
F4.0
sI235
F4.0
sI333
F4.0
sI750
F4.0
sI111
F4.0
sI296
F4.5
sI50
F4.0
sI589
F4.5
sI441
F4.5
sI216
F4.0
sI356
F4.0
sI858
F4.5
sI923
F4.5
sI924
F5.0
sI318
F4.5
sI223
F4.5
ssI520
(dp510
I32
F4.5
sI480
F4.0
sI475
F3.5
sI260
F5.0
sI231
F4.0
sI296
F4.0
sI457
F3.5
sI648
F3.5
sI588
F4.0
sI750
F4.5
sI111
F5.0
sI912
F5.0
sI593
F4.5
sI50
F5.0
sI595
F4.5
sI527
F5.0
sI858
F5.0
sI47
F5.0
sI318
F5.0
ssI521
(dp511
I608
F5.0
sI260
F4.5
sI805
F3.5
sI904
F4.5
sI908
F4.5
sI236
F3.5
sI333
F3.5
sI527
F4.5
sI593
F4.5
sI50
F4.5
sI852
F4.0
sI471
F3.5
sI376
F3.5
sI858
F5.0
sI318
F4.5
ssI522
(dp512
I356
F4.0
sI231
F3.5
sI296
F4.0
sI778
F3.5
sI110
F4.0
sI47
F4.0
sI466
F3.5
sI19
F3.5
sI344
F4.0
sI442
F3.5
sI431
F3.5
sI508
F3.5
sI858
F4.5
ssI523
(dp513
I260
F4.5
sI520
F4.0
sI266
F4.5
sI141
F4.0
sI783
F3.5
sI150
F3.5
sI539
F5.0
sI296
F3.5
sI555
F5.0
sI50
F5.0
sI733
F4.5
sI48
F4.0
sI648
F4.5
sI434
F3.5
sI628
F4.5
sI318
F5.0
sI587
F4.5
sI588
F4.0
sI589
F5.0
sI590
F4.5
sI593
F4.5
sI595
F5.0
sI858
F4.5
sI349
F4.0
sI480
F4.0
sI356
F4.5
sI364
F4.0
sI110
F5.0
sI367
F4.5
sI500
F4.0
sI377
F4.0
sI380
F3.5
sI253
F4.0
ssI524
(dp514
I32
F4.0
sI428
F3.5
ssI525
(dp515
I260
F5.0
sI6
F4.0
sI903
F4.0
sI924
F5.0
sI858
F5.0
sI589
F5.0
sI110
F5.0
sI733
F4.0
sI21
F4.0
sI185
F4.0
sI442
F5.0
sI380
F5.0
sI474
F5.0
sI31
F4.0
ssI526
(dp516
I1
F4.0
ssI527
(dp517
I32
F3.5
sI608
F3.5
sI260
F4.0
sI293
F4.5
sI778
F3.5
sI110
F3.5
sI47
F3.5
sI912
F4.0
sI593
F3.5
sI50
F3.5
sI372
F3.5
sI62
F3.5
sI356
F3.5
sI858
F4.5
sI590
F3.5
sI541
F4.0
sI94
F4.5
ssI528
(dp518
I608
F4.0
sI899
F4.5
sI260
F3.5
sI296
F3.5
sI266
F3.5
sI908
F4.5
sI111
F3.5
sI808
F3.5
sI50
F4.0
sI52
F3.5
sI441
F4.5
sI858
F4.0
sI904
F4.5
sI223
F3.5
ssI529
(dp519
I1
F4.0
sI515
F4.0
sI260
F4.0
sI261
F4.0
sI904
F4.0
sI265
F5.0
sI599
F5.0
sI910
F4.5
sI527
F5.0
sI912
F5.0
sI17
F4.5
sI899
F5.0
sI916
F4.0
sI534
F4.0
sI919
F5.0
sI920
F4.0
sI25
F4.0
sI900
F4.0
sI923
F4.0
sI28
F4.0
sI922
F3.5
sI926
F5.0
sI927
F5.0
sI32
F4.0
sI34
F5.0
sI36
F4.5
sI549
F4.5
sI935
F5.0
sI924
F4.0
sI300
F4.5
sI685
F4.0
sI306
F4.0
sI307
F4.0
sI308
F4.0
sI918
F5.0
sI55
F4.0
sI52
F4.0
sI58
F4.0
sI955
F5.0
sI62
F4.0
sI448
F4.0
sI581
F3.5
sI838
F4.0
sI968
F4.0
sI616
F4.0
sI951
F5.0
sI337
F4.0
sI471
F4.0
sI728
F4.0
sI475
F5.0
sI348
F5.0
sI921
F5.0
sI608
F5.0
sI994
F5.0
sI357
F4.0
sI230
F4.0
sI232
F4.5
sI105
F4.0
sI363
F3.5
sI492
F5.0
sI750
F4.5
sI111
F4.0
sI497
F4.0
sI318
F4.5
sI508
F3.5
ssI530
(dp520
I1
F5.0
sI260
F5.0
sI261
F4.0
sI647
F4.0
sI14
F4.0
sI527
F5.0
sI17
F4.0
sI661
F5.0
sI736
F4.0
sI802
F4.0
sI36
F5.0
sI48
F4.0
sI62
F4.0
sI832
F5.0
sI608
F5.0
sI838
F4.0
sI588
F5.0
sI720
F5.0
sI594
F5.0
sI595
F5.0
sI783
F5.0
sI733
F4.0
sI95
F5.0
sI480
F5.0
sI356
F5.0
sI745
F5.0
sI364
F5.0
sI239
F4.0
ssI531
(dp521
I2
F4.0
sI356
F3.5
sI364
F4.0
sI919
F4.0
sI588
F4.0
sI720
F4.0
sI594
F4.0
sI596
F3.5
sI661
F3.5
sI745
F3.5
sI410
F3.5
ssI532
(dp522
I480
F4.0
sI163
F3.5
sI457
F3.5
sI589
F4.0
sI110
F3.5
sI466
F4.0
sI19
F3.5
sI344
F3.5
sI380
F3.5
sI733
F4.0
ssI533
(dp523
I899
F4.0
sI260
F5.0
sI150
F4.0
sI780
F4.0
sI529
F4.0
sI534
F4.0
sI923
F4.0
sI541
F4.0
sI32
F4.0
sI292
F4.0
sI969
F5.0
sI953
F5.0
sI316
F5.0
sI318
F4.0
sI608
F4.0
sI329
F4.0
sI589
F4.0
sI593
F5.0
sI36
F4.0
sI480
F4.0
sI230
F4.0
sI361
F4.0
sI379
F4.0
ssI534
(dp524
I1
F5.0
sI2
F4.0
sI259
F4.0
sI150
F5.0
sI6
F5.0
sI257
F4.0
sI648
F4.0
sI266
F4.0
sI733
F5.0
sI780
F5.0
sI782
F4.0
sI16
F4.0
sI494
F4.0
sI22
F4.0
sI23
F4.0
sI280
F4.0
sI431
F4.0
sI540
F4.0
sI158
F5.0
sI517
F4.0
sI32
F4.0
sI161
F5.0
sI802
F5.0
sI163
F4.0
sI36
F4.0
sI165
F4.0
sI832
F5.0
sI423
F4.0
sI168
F4.0
sI455
F4.0
sI353
F5.0
sI47
F5.0
sI434
F4.0
sI436
F4.0
sI798
F4.0
sI479
F4.0
sI185
F4.0
sI315
F4.0
sI61
F4.0
sI318
F5.0
sI539
F4.0
sI707
F4.0
sI836
F4.0
sI454
F5.0
sI292
F4.0
sI457
F4.0
sI586
F4.0
sI588
F5.0
sI590
F5.0
sI463
F4.0
sI208
F4.0
sI593
F4.0
sI996
F4.0
sI547
F4.0
sI852
F4.0
sI86
F5.0
sI89
F4.0
sI474
F4.0
sI349
F4.0
sI673
F4.0
sI95
F4.0
sI736
F5.0
sI225
F4.0
sI356
F4.0
sI490
F4.0
sI107
F4.0
sI364
F5.0
sI110
F5.0
sI239
F4.0
sI368
F4.0
sI296
F4.0
sI628
F4.0
sI552
F4.0
sI631
F4.0
sI376
F4.0
sI377
F4.0
sI507
F4.0
sI380
F4.0
ssI535
(dp525
I480
F4.0
sI161
F4.0
sI293
F4.0
sI454
F4.0
sI551
F5.0
sI457
F4.0
sI589
F4.0
sI110
F4.0
sI208
F4.0
sI593
F5.0
sI592
F5.0
sI349
F4.0
sI318
F4.0
ssI536
(dp526
I257
F4.0
sI259
F4.0
sI260
F5.0
sI22
F5.0
sI452
F5.0
sI270
F4.0
sI144
F5.0
sI277
F5.0
sI150
F5.0
sI23
F4.0
sI153
F4.0
sI431
F4.0
sI158
F4.0
sI159
F5.0
sI161
F5.0
sI34
F5.0
sI163
F5.0
sI261
F5.0
sI165
F5.0
sI294
F4.0
sI39
F5.0
sI296
F5.0
sI553
F5.0
sI427
F4.0
sI300
F4.0
sI50
F5.0
sI47
F4.0
sI177
F5.0
sI178
F5.0
sI180
F4.0
sI57
F5.0
sI315
F4.0
sI60
F4.0
sI317
F4.0
sI318
F5.0
sI555
F5.0
sI194
F4.0
sI195
F4.0
sI196
F4.0
sI198
F5.0
sI588
F5.0
sI204
F4.0
sI333
F4.0
sI206
F4.0
sI337
F5.0
sI434
F4.0
sI339
F4.0
sI590
F5.0
sI185
F4.0
sI344
F5.0
sI349
F4.0
sI222
F5.0
sI223
F5.0
sI224
F5.0
sI225
F4.0
sI293
F4.0
sI230
F5.0
sI231
F4.0
sI233
F5.0
sI235
F5.0
sI236
F4.0
sI237
F4.0
sI110
F5.0
sI381
F4.0
sI241
F5.0
sI595
F5.0
sI316
F4.0
sI246
F5.0
sI250
F4.0
sI351
F4.0
sI281
F4.0
sI253
F4.0
sI380
F4.0
ssI537
(dp527
I1
F5.0
sI515
F5.0
sI7
F5.0
sI527
F5.0
sI17
F5.0
sI21
F5.0
sI534
F4.0
sI538
F4.0
sI539
F5.0
sI29
F5.0
sI32
F4.0
sI36
F4.0
sI41
F5.0
sI43
F4.0
sI562
F5.0
sI58
F5.0
sI62
F4.0
sI581
F4.0
sI268
F4.0
sI590
F5.0
sI593
F4.0
sI529
F4.0
sI105
F4.0
sI635
F5.0
sI141
F4.0
sI661
F4.0
sI150
F4.0
sI151
F4.0
sI163
F5.0
sI164
F4.0
sI171
F5.0
sI541
F5.0
sI176
F4.0
sI969
F5.0
sI194
F4.0
sI708
F4.0
sI714
F4.0
sI205
F5.0
sI720
F5.0
sI222
F4.0
sI229
F4.0
sI230
F4.0
sI745
F5.0
sI750
F5.0
sI260
F5.0
sI261
F4.0
sI265
F4.0
sI266
F4.0
sI780
F5.0
sI272
F5.0
sI788
F4.0
sI277
F4.0
sI280
F4.0
sI281
F4.0
sI282
F4.0
sI800
F5.0
sI802
F4.0
sI296
F4.0
sI300
F4.0
sI50
F5.0
sI314
F5.0
sI318
F5.0
sI329
F5.0
sI334
F4.0
sI337
F4.0
sI339
F4.0
sI342
F5.0
sI345
F4.0
sI348
F4.0
sI356
F4.0
sI357
F4.0
sI875
F4.0
sI368
F4.0
sI369
F4.0
sI373
F5.0
sI898
F5.0
sI899
F5.0
sI900
F4.0
sI901
F5.0
sI902
F5.0
sI904
F5.0
sI907
F5.0
sI908
F5.0
sI910
F4.0
sI911
F5.0
sI912
F5.0
sI913
F4.0
sI914
F5.0
sI915
F5.0
sI916
F5.0
sI918
F4.0
sI919
F5.0
sI920
F5.0
sI921
F5.0
sI922
F4.0
sI923
F4.0
sI412
F5.0
sI926
F5.0
sI930
F5.0
sI932
F4.0
sI933
F5.0
sI934
F4.0
sI935
F4.0
sI936
F4.0
sI924
F5.0
sI938
F5.0
sI940
F4.0
sI942
F4.0
sI943
F4.0
sI945
F5.0
sI948
F4.0
sI951
F4.0
sI440
F4.0
sI953
F4.0
sI954
F4.0
sI955
F5.0
sI956
F4.0
sI452
F4.0
sI457
F4.0
sI971
F5.0
sI973
F4.0
sI471
F5.0
sI475
F5.0
sI994
F5.0
sI492
F4.0
sI497
F5.0
sI937
F5.0
sI508
F5.0
sI509
F5.0
ssI538
(dp528
I1
F5.0
sI150
F4.0
sI588
F4.0
sI300
F5.0
sI110
F4.0
sI111
F5.0
sI590
F4.0
sI246
F5.0
sI509
F5.0
sI318
F5.0
sI319
F5.0
ssI539
(dp529
I608
F4.0
sI326
F5.0
sI296
F4.0
sI265
F4.0
sI527
F4.0
sI17
F4.0
sI50
F4.0
sI318
F4.0
ssI540
(dp530
I318
F5.0
ssI541
(dp531
I356
F4.0
ssI542
(dp532
I1
F4.5
sI858
F5.0
sI329
F4.0
ssI543
(dp533
I1
F5.0
sI3
F5.0
sI260
F5.0
sI7
F5.0
sI648
F5.0
sI780
F5.0
sI141
F5.0
sI783
F4.0
sI786
F4.0
sI661
F5.0
sI663
F4.0
sI673
F4.0
sI802
F4.0
sI647
F5.0
sI736
F5.0
sI708
F4.0
sI837
F4.0
sI801
F5.0
sI653
F5.0
sI848
F5.0
sI852
F5.0
sI719
F5.0
sI733
F5.0
sI608
F5.0
sI107
F5.0
sI494
F5.0
sI881
F4.0
sI376
F4.0
sI761
F4.0
sI762
F5.0
ssI544
(dp534
I260
F4.0
sI6
F4.5
sI778
F5.0
sI780
F3.5
sI527
F4.5
sI16
F4.0
sI750
F4.5
sI150
F5.0
sI25
F5.0
sI924
F5.0
sI32
F4.5
sI293
F4.5
sI296
F4.5
sI556
F4.5
sI47
F5.0
sI608
F5.0
sI714
F5.0
sI589
F4.5
sI593
F4.0
sI858
F5.0
sI223
F5.0
sI480
F4.0
sI356
F4.0
sI110
F4.0
sI111
F4.5
ssI545
(dp535
I608
F5.0
sI34
F4.0
sI515
F5.0
sI36
F5.0
sI549
F5.0
sI296
F5.0
sI265
F5.0
sI555
F5.0
sI300
F5.0
sI111
F5.0
sI497
F4.0
sI47
F5.0
ssI546
(dp536
I32
F5.0
sI356
F5.0
sI231
F5.0
sI272
F5.0
sI216
F5.0
sI318
F5.0
ssI547
(dp537
I1
F3.5
sI515
F4.5
sI14
F3.5
sI527
F5.0
sI16
F4.0
sI17
F5.0
sI21
F4.0
sI537
F3.5
sI538
F4.0
sI541
F3.5
sI32
F4.0
sI34
F4.0
sI36
F4.0
sI555
F4.5
sI45
F4.0
sI47
F4.0
sI50
F4.0
sI57
F4.0
sI778
F4.0
sI581
F5.0
sI593
F5.0
sI594
F5.0
sI595
F3.5
sI596
F4.0
sI597
F3.5
sI953
F5.0
sI94
F3.5
sI608
F5.0
sI529
F3.5
sI111
F5.0
sI628
F4.0
sI123
F4.0
sI125
F5.0
sI150
F4.0
sI25
F4.5
sI671
F4.0
sI165
F4.5
sI176
F5.0
sI969
F5.0
sI116
F4.5
sI193
F3.5
sI194
F5.0
sI232
F4.0
sI233
F4.0
sI235
F4.0
sI750
F5.0
sI246
F5.0
sI247
F4.0
sI261
F4.0
sI265
F4.0
sI266
F4.0
sI780
F3.5
sI781
F4.0
sI272
F4.0
sI281
F3.5
sI288
F4.0
sI803
F4.0
sI902
F5.0
sI296
F5.0
sI300
F4.5
sI318
F5.0
sI337
F4.5
sI342
F4.0
sI858
F4.0
sI349
F3.5
sI866
F4.5
sI357
F4.5
sI370
F4.5
sI898
F5.0
sI899
F5.0
sI390
F3.5
sI903
F5.0
sI904
F5.0
sI905
F4.0
sI906
F4.0
sI908
F5.0
sI909
F5.0
sI910
F5.0
sI912
F5.0
sI913
F5.0
sI917
F4.0
sI918
F4.0
sI919
F5.0
sI920
F5.0
sI921
F4.0
sI922
F5.0
sI923
F5.0
sI924
F5.0
sI926
F5.0
sI927
F5.0
sI928
F5.0
sI930
F4.0
sI931
F4.0
sI938
F4.5
sI428
F3.5
sI942
F4.5
sI945
F4.0
sI952
F4.0
sI948
F3.5
sI949
F4.0
sI950
F4.5
sI440
F3.5
sI441
F4.5
sI954
F4.5
sI955
F5.0
sI448
F5.0
sI968
F4.0
sI457
F4.0
sI971
F5.0
sI474
F4.0
sI475
F4.0
sI477
F4.5
sI994
F5.0
sI495
F4.0
sI500
F4.0
ssI548
(dp538
I1
F4.0
sI3
F4.0
sI260
F5.0
sI10
F4.0
sI780
F4.0
sI141
F4.0
sI541
F5.0
sI671
F4.0
sI162
F4.0
sI293
F4.0
sI296
F4.0
sI553
F4.0
sI555
F4.0
sI733
F4.0
sI50
F4.0
sI52
F4.0
sI440
F4.0
sI58
F5.0
sI778
F5.0
sI318
F5.0
sI608
F5.0
sI69
F4.0
sI457
F5.0
sI593
F4.0
sI471
F4.0
sI345
F4.0
sI474
F4.0
sI348
F4.0
sI349
F4.0
sI442
F4.0
sI480
F4.0
sI481
F4.0
sI356
F4.0
sI231
F4.0
sI105
F4.0
sI110
F5.0
sI628
F4.0
sI246
F4.0
ssI549
(dp539
I50
F4.5
sI858
F5.0
sI750
F5.0
sI318
F3.5
sI671
F5.0
ssI550
(dp540
I647
F4.0
sI904
F5.0
sI10
F4.0
sI11
F4.0
sI527
F5.0
sI16
F5.0
sI145
F4.0
sI665
F5.0
sI32
F4.0
sI161
F4.0
sI34
F4.0
sI296
F5.0
sI41
F5.0
sI608
F5.0
sI588
F4.0
sI589
F4.0
sI590
F5.0
sI593
F4.0
sI338
F4.0
sI474
F4.0
sI733
F4.0
sI480
F4.0
sI353
F4.0
sI356
F4.0
sI748
F5.0
sI377
F5.0
sI380
F4.0
ssI551
(dp541
I7
F4.0
sI520
F4.0
sI783
F5.0
sI273
F4.0
sI788
F4.0
sI150
F4.0
sI667
F4.0
sI419
F4.0
sI420
F4.0
sI421
F4.0
sI648
F4.0
sI316
F4.0
sI575
F4.0
sI835
F4.0
sI457
F4.0
sI586
F4.0
sI587
F4.0
sI589
F4.0
sI594
F4.0
sI344
F4.0
sI474
F4.0
sI367
F4.0
sI880
F4.0
sI637
F4.0
ssI552
(dp542
I97
F4.0
sI198
F4.0
sI551
F4.0
sI296
F5.0
sI616
F4.0
sI593
F4.0
sI319
F4.0
ssI553
(dp543
I1
F4.0
sI260
F5.0
sI293
F4.0
sI110
F5.0
sI858
F3.5
sI318
F5.0
ssI554
(dp544
I593
F4.0
sI527
F5.0
sI17
F5.0
sI858
F5.0
sI495
F4.0
sI541
F4.0
ssI555
(dp545
I608
F4.0
sI272
F4.0
sI194
F5.0
sI515
F4.0
sI260
F5.0
sI357
F4.0
sI582
F4.0
sI296
F4.0
sI306
F5.0
sI34
F4.0
sI527
F4.0
sI144
F4.0
sI589
F4.0
sI50
F4.0
sI307
F4.0
sI308
F5.0
sI535
F4.0
sI154
F4.0
sI509
F4.0
sI318
F5.0
ssI556
(dp546
I480
F5.0
sI161
F5.0
sI292
F5.0
sI165
F5.0
sI454
F5.0
sI329
F5.0
sI586
F4.0
sI364
F4.0
sI590
F5.0
sI208
F4.0
sI593
F5.0
sI434
F4.0
sI500
F4.0
sI150
F5.0
sI457
F5.0
sI344
F4.0
sI380
F4.0
sI474
F5.0
sI316
F5.0
sI349
F5.0
sI318
F5.0
ssI557
(dp547
I934
F3.5
ssI558
(dp548
I608
F4.0
sI290
F4.0
sI806
F4.0
sI678
F5.0
sI615
F4.0
sI648
F4.0
sI969
F5.0
sI903
F4.0
sI908
F5.0
sI846
F4.0
sI111
F5.0
sI912
F5.0
sI593
F5.0
sI904
F5.0
sI949
F4.0
sI999
F4.0
sI920
F5.0
sI121
F4.0
sI858
F5.0
sI924
F5.0
ssI559
(dp549
I1
F4.0
sI260
F5.0
sI903
F5.0
sI648
F4.0
sI780
F4.0
sI527
F5.0
sI17
F4.0
sI788
F4.0
sI494
F4.0
sI150
F5.0
sI802
F4.0
sI541
F5.0
sI926
F5.0
sI671
F4.0
sI34
F4.0
sI805
F5.0
sI300
F4.0
sI733
F4.0
sI986
F5.0
sI904
F5.0
sI953
F5.0
sI991
F5.0
sI316
F5.0
sI318
F5.0
sI457
F5.0
sI588
F5.0
sI589
F5.0
sI590
F5.0
sI79
F4.0
sI593
F5.0
sI858
F5.0
sI852
F4.0
sI474
F5.0
sI719
F4.0
sI349
F5.0
sI95
F4.0
sI608
F5.0
sI356
F5.0
sI913
F5.0
sI104
F4.0
sI364
F4.0
sI110
F5.0
sI497
F5.0
sI376
F4.0
sI380
F5.0
ssI560
(dp550
I1
F4.5
sI648
F4.0
sI10
F4.0
sI780
F4.0
sI527
F4.5
sI19
F3.5
sI150
F4.5
sI34
F3.5
sI165
F4.0
sI296
F4.0
sI778
F3.5
sI318
F5.0
sI455
F3.5
sI586
F4.0
sI589
F4.0
sI593
F3.5
sI596
F4.0
sI597
F3.5
sI344
F3.5
sI858
F4.0
sI480
F4.0
sI356
F4.0
sI231
F3.5
sI364
F4.0
ssI561
(dp551
I260
F4.5
sI648
F3.5
sI236
F3.5
sI10
F3.5
sI908
F3.5
sI141
F4.0
sI527
F4.0
sI150
F4.0
sI923
F4.0
sI924
F3.5
sI32
F3.5
sI163
F4.0
sI293
F4.0
sI551
F4.0
sI296
F4.5
sI180
F4.5
sI62
F4.0
sI588
F3.5
sI592
F4.0
sI593
F4.5
sI466
F4.0
sI595
F3.5
sI733
F4.0
sI223
F5.0
sI480
F4.0
sI356
F3.5
sI104
F4.0
sI235
F5.0
sI364
F4.0
sI367
F3.5
sI368
F4.0
sI552
F4.0
sI370
F3.5
ssI562
(dp552
I1
F4.5
sI260
F5.0
sI5
F3.5
sI6
F4.0
sI778
F4.0
sI11
F4.0
sI780
F4.0
sI141
F4.0
sI527
F4.0
sI16
F3.5
sI786
F3.5
sI21
F4.0
sI150
F4.5
sI410
F3.5
sI539
F4.0
sI541
F4.0
sI32
F4.0
sI34
F4.0
sI163
F4.0
sI36
F4.0
sI165
F3.5
sI678
F3.5
sI39
F3.5
sI296
F5.0
sI553
F4.0
sI555
F4.0
sI300
F4.0
sI47
F4.5
sI50
F5.0
sI180
F4.0
sI608
F4.5
sI185
F3.5
sI186
F3.5
sI95
F3.5
sI318
F5.0
sI288
F4.0
sI457
F4.0
sI586
F3.5
sI420
F3.5
sI589
F5.0
sI590
F4.0
sI592
F4.5
sI593
F5.0
sI736
F3.5
sI339
F3.5
sI597
F4.5
sI292
F4.0
sI858
F4.0
sI733
F4.0
sI223
F5.0
sI480
F5.0
sI353
F4.5
sI356
F4.0
sI293
F4.5
sI357
F4.0
sI235
F4.0
sI364
F4.5
sI110
F4.0
sI500
F3.5
sI377
F4.0
sI380
F4.0
sI253
F4.5
ssI563
(dp553
I608
F4.0
sI356
F4.5
sI293
F4.0
sI296
F5.0
sI778
F4.5
sI750
F5.0
sI111
F4.5
sI442
F3.5
sI924
F5.0
sI541
F4.0
sI741
F4.5
ssI564
(dp554
I1
F4.0
sI2
F4.0
sI513
F4.0
sI521
F5.0
sI523
F5.0
sI13
F4.0
sI527
F4.0
sI16
F4.0
sI529
F5.0
sI532
F5.0
sI21
F4.0
sI22
F5.0
sI535
F4.0
sI25
F5.0
sI538
F5.0
sI539
F5.0
sI540
F4.0
sI541
F4.0
sI30
F5.0
sI543
F4.0
sI32
F4.0
sI36
F5.0
sI550
F5.0
sI39
F5.0
sI552
F4.0
sI43
F4.0
sI556
F4.0
sI45
F5.0
sI46
F5.0
sI47
F4.0
sI49
F5.0
sI50
F5.0
sI52
F5.0
sI565
F4.0
sI55
F4.0
sI57
F4.0
sI571
F4.0
sI68
F4.0
sI581
F5.0
sI585
F4.0
sI695
F4.0
sI76
F4.0
sI77
F4.0
sI78
F4.0
sI592
F4.0
sI593
F5.0
sI514
F5.0
sI595
F4.0
sI596
F4.0
sI85
F4.0
sI86
F4.0
sI753
F4.0
sI92
F5.0
sI94
F4.0
sI608
F5.0
sI610
F4.0
sI99
F4.0
sI612
F4.0
sI102
F4.0
sI103
F5.0
sI616
F4.0
sI105
F4.0
sI107
F4.0
sI108
F4.0
sI621
F5.0
sI113
F4.0
sI627
F4.0
sI116
F5.0
sI118
F4.0
sI121
F4.0
sI122
F4.0
sI125
F5.0
sI533
F4.0
sI640
F4.0
sI875
F4.0
sI132
F4.0
sI534
F4.0
sI141
F4.0
sI840
F4.0
sI922
F5.0
sI149
F5.0
sI151
F5.0
sI152
F4.0
sI708
F4.0
sI879
F5.0
sI156
F5.0
sI671
F4.0
sI161
F4.0
sI162
F5.0
sI165
F4.0
sI166
F4.0
sI680
F4.0
sI551
F5.0
sI170
F4.0
sI171
F4.0
sI173
F4.0
sI176
F4.0
sI691
F4.0
sI180
F4.0
sI542
F4.0
sI183
F5.0
sI184
F5.0
sI185
F4.0
sI799
F4.0
sI188
F5.0
sI189
F4.0
sI193
F5.0
sI194
F4.0
sI707
F5.0
sI196
F4.0
sI198
F4.0
sI893
F5.0
sI203
F4.0
sI206
F5.0
sI720
F4.0
sI722
F4.0
sI724
F5.0
sI633
F4.0
sI728
F5.0
sI219
F4.0
sI733
F4.0
sI222
F4.0
sI223
F5.0
sI736
F5.0
sI225
F4.0
sI229
F5.0
sI230
F5.0
sI231
F5.0
sI233
F5.0
sI234
F4.0
sI235
F5.0
sI748
F4.0
sI750
F5.0
sI239
F5.0
sI240
F5.0
sI241
F5.0
sI754
F4.0
sI247
F5.0
sI248
F5.0
sI639
F4.0
sI253
F5.0
sI766
F5.0
sI256
F4.0
sI588
F4.0
sI555
F5.0
sI537
F4.0
sI261
F4.0
sI778
F4.0
sI782
F4.0
sI271
F5.0
sI273
F4.0
sI786
F4.0
sI788
F4.0
sI558
F4.0
sI278
F5.0
sI674
F4.0
sI745
F4.0
sI282
F4.0
sI606
F4.0
sI798
F4.0
sI287
F4.0
sI800
F5.0
sI801
F4.0
sI802
F4.0
sI804
F4.0
sI295
F4.0
sI296
F5.0
sI299
F5.0
sI302
F4.0
sI818
F4.0
sI312
F5.0
sI735
F4.0
sI830
F4.0
sI319
F5.0
sI880
F4.0
sI326
F5.0
sI327
F5.0
sI328
F4.0
sI841
F4.0
sI330
F4.0
sI567
F5.0
sI332
F4.0
sI846
F4.0
sI653
F4.0
sI849
F5.0
sI339
F4.0
sI341
F5.0
sI342
F5.0
sI345
F4.0
sI347
F4.0
sI348
F4.0
sI349
F4.0
sI350
F5.0
sI741
F4.0
sI353
F4.0
sI866
F5.0
sI355
F4.0
sI363
F5.0
sI364
F4.0
sI366
F5.0
sI367
F4.0
sI368
F4.0
sI372
F4.0
sI373
F5.0
sI375
F4.0
sI376
F4.0
sI379
F4.0
sI380
F5.0
sI381
F4.0
sI661
F4.0
sI384
F5.0
sI831
F4.0
sI387
F4.0
sI388
F4.0
sI901
F4.0
sI390
F4.0
sI903
F5.0
sI904
F5.0
sI905
F4.0
sI908
F5.0
sI910
F5.0
sI678
F4.0
sI912
F4.0
sI664
F4.0
sI921
F5.0
sI407
F4.0
sI920
F5.0
sI580
F4.0
sI410
F5.0
sI413
F4.0
sI926
F5.0
sI416
F5.0
sI930
F4.0
sI931
F4.0
sI421
F5.0
sI422
F5.0
sI423
F5.0
sI425
F4.0
sI426
F5.0
sI896
F4.0
sI942
F4.0
sI628
F5.0
sI434
F4.0
sI953
F5.0
sI955
F5.0
sI446
F4.0
sI447
F4.0
sI448
F4.0
sI928
F4.0
sI451
F4.0
sI452
F4.0
sI934
F4.0
sI454
F4.0
sI968
F5.0
sI457
F4.0
sI785
F4.0
sI461
F4.0
sI589
F5.0
sI988
F5.0
sI477
F4.0
sI480
F5.0
sI481
F4.0
sI485
F4.0
sI492
F5.0
sI594
F4.0
sI495
F4.0
sI500
F5.0
sI501
F5.0
sI507
F4.0
sI509
F5.0
sI597
F4.0
ssI565
(dp555
I480
F4.0
sI608
F5.0
sI589
F4.0
ssI566
(dp556
I318
F5.0
ssI567
(dp557
I356
F4.0
sI589
F5.0
sI750
F4.0
sI593
F4.0
sI260
F3.5
sI858
F5.0
sI924
F4.0
sI318
F5.0
ssI568
(dp558
I733
F4.0
sI10
F4.0
sI153
F5.0
sI288
F4.0
sI161
F4.0
sI292
F4.0
sI165
F4.0
sI296
F4.0
sI300
F4.0
sI47
F5.0
sI434
F5.0
sI329
F5.0
sI442
F5.0
sI316
F5.0
sI318
F5.0
sI736
F4.0
sI457
F5.0
sI588
F4.0
sI589
F5.0
sI592
F5.0
sI593
F5.0
sI595
F4.0
sI474
F5.0
sI349
F5.0
sI293
F4.0
sI480
F5.0
sI353
F4.0
sI377
F5.0
sI380
F5.0
ssI569
(dp559
I899
F5.0
sI903
F5.0
sI904
F5.0
sI905
F5.0
sI11
F5.0
sI908
F5.0
sI909
F5.0
sI910
F5.0
sI911
F5.0
sI912
F5.0
sI914
F5.0
sI915
F4.0
sI916
F5.0
sI151
F4.0
sI920
F5.0
sI922
F5.0
sI474
F5.0
sI928
F5.0
sI931
F4.0
sI164
F4.0
sI933
F4.0
sI39
F4.0
sI942
F4.0
sI943
F5.0
sI440
F4.0
sI318
F5.0
sI969
F5.0
sI593
F4.0
sI919
F5.0
sI858
F5.0
sI349
F5.0
sI356
F5.0
sI377
F4.0
ssI570
(dp560
I608
F4.0
sI36
F4.0
sI165
F5.0
sI593
F5.0
sI104
F3.5
sI457
F4.0
sI648
F5.0
sI780
F4.0
sI296
F5.0
sI150
F3.5
sI356
F5.0
sI474
F4.0
sI508
F5.0
sI733
F4.5
ssI571
(dp561
I32
F4.5
sI88
F3.5
sI18
F5.0
sI413
F4.0
sI150
F4.0
ssI572
(dp562
I356
F4.0
sI337
F4.0
sI296
F4.0
sI527
F4.0
sI912
F4.0
sI145
F4.5
sI50
F4.0
sI593
F3.5
sI858
F4.0
sI318
F4.5
ssI573
(dp563
I36
F5.0
sI527
F5.0
sI80
F4.0
sI595
F4.0
sI596
F4.0
sI538
F4.0
ssI574
(dp564
I1
F4.0
sI3
F3.5
sI260
F4.0
sI517
F4.0
sI6
F5.0
sI471
F3.5
sI780
F3.5
sI141
F4.0
sI16
F4.5
sI145
F3.5
sI25
F4.5
sI541
F4.0
sI32
F4.5
sI163
F3.5
sI293
F5.0
sI296
F5.0
sI47
F4.5
sI50
F5.0
sI442
F3.5
sI318
F5.0
sI608
F5.0
sI70
F4.0
sI589
F4.0
sI215
F4.5
sI858
F5.0
sI223
F4.0
sI480
F3.5
sI165
F3.5
sI356
F4.5
sI364
F3.5
sI111
F5.0
ssI575
(dp565
I2
F4.0
sI491
F4.0
sI260
F5.0
sI261
F4.0
sI7
F4.0
sI905
F4.0
sI907
F4.0
sI908
F4.0
sI898
F5.0
sI910
F5.0
sI911
F4.0
sI912
F5.0
sI17
F5.0
sI914
F4.0
sI515
F5.0
sI148
F4.0
sI750
F5.0
sI918
F4.0
sI919
F4.0
sI920
F4.0
sI153
F4.0
sI900
F5.0
sI28
F5.0
sI541
F4.0
sI901
F4.0
sI928
F4.0
sI34
F5.0
sI932
F5.0
sI933
F4.0
sI945
F5.0
sI940
F5.0
sI941
F4.0
sI942
F4.0
sI596
F4.0
sI969
F5.0
sI457
F5.0
sI440
F4.0
sI953
F5.0
sI954
F4.0
sI700
F4.0
sI318
F4.0
sI608
F4.0
sI838
F5.0
sI329
F5.0
sI971
F4.0
sI588
F4.0
sI930
F4.0
sI207
F4.0
sI848
F4.0
sI339
F5.0
sI468
F4.0
sI915
F4.0
sI861
F4.0
sI991
F4.0
sI224
F4.0
sI994
F5.0
sI613
F4.0
sI913
F5.0
sI361
F4.0
sI490
F4.0
sI107
F4.0
sI494
F4.0
sI112
F4.0
sI497
F5.0
sI595
F5.0
sI500
F4.0
sI377
F4.0
sI916
F5.0
sI899
F5.0
ssI576
(dp566
I480
F4.0
sI924
F4.0
sI260
F4.0
sI541
F4.0
ssI577
(dp567
I1
F5.0
sI260
F4.5
sI6
F4.0
sI648
F3.5
sI364
F4.0
sI10
F3.5
sI780
F3.5
sI912
F5.0
sI17
F5.0
sI786
F4.0
sI150
F4.5
sI919
F4.5
sI29
F5.0
sI849
F3.5
sI32
F4.5
sI161
F4.5
sI34
F5.0
sI165
F4.5
sI585
F4.0
sI296
F5.0
sI173
F4.0
sI47
F4.0
sI48
F3.5
sI434
F3.5
sI457
F4.5
sI440
F4.0
sI953
F5.0
sI316
F3.5
sI318
F4.5
sI454
F3.5
sI329
F4.0
sI586
F3.5
sI588
F4.0
sI589
F4.5
sI590
F3.5
sI593
F4.0
sI595
F4.5
sI596
F4.0
sI342
F4.0
sI858
F5.0
sI902
F5.0
sI349
F3.5
sI95
F3.5
sI480
F4.0
sI356
F4.0
sI357
F4.5
sI231
F3.5
sI236
F4.0
sI541
F5.0
sI110
F4.5
sI111
F5.0
sI368
F4.0
sI497
F5.0
sI500
F3.5
sI247
F4.5
sI377
F3.5
sI380
F4.5
ssI578
(dp568
I593
F4.0
sI858
F4.0
ssI580
(dp569
I1
F4.0
sI2
F3.5
sI899
F4.0
sI260
F4.0
sI6
F3.5
sI903
F3.5
sI905
F4.0
sI778
F4.5
sI912
F4.0
sI908
F4.0
sI750
F4.5
sI527
F4.0
sI16
F3.5
sI785
F3.5
sI147
F4.5
sI661
F4.0
sI919
F4.0
sI152
F3.5
sI47
F4.0
sI412
F3.5
sI29
F4.0
sI159
F4.0
sI32
F4.5
sI913
F3.5
sI674
F3.5
sI39
F4.0
sI296
F4.5
sI551
F4.0
sI555
F3.5
sI500
F3.5
sI175
F3.5
sI50
F4.0
sI441
F4.0
sI442
F3.5
sI671
F4.0
sI444
F3.5
sI318
F4.0
sI288
F4.5
sI69
F3.5
sI969
F3.5
sI589
F4.5
sI590
F4.0
sI592
F3.5
sI337
F4.0
sI594
F4.0
sI596
F3.5
sI85
F4.0
sI953
F3.5
sI858
F5.0
sI357
F3.5
sI608
F4.5
sI353
F4.0
sI610
F3.5
sI356
F3.5
sI101
F4.0
sI593
F4.0
sI616
F3.5
sI235
F3.5
sI364
F3.5
sI110
F4.5
sI111
F4.5
sI112
F3.5
sI741
F3.5
sI372
F4.0
sI553
F4.0
sI249
F3.5
sI541
F4.0
ssI581
(dp570
I493
F4.5
sI502
F4.0
ssI582
(dp571
I899
F4.5
sI551
F5.0
sI588
F4.5
sI364
F4.0
sI653
F4.0
sI783
F4.0
sI48
F4.0
sI337
F4.5
sI594
F4.0
sI595
F4.0
sI596
F3.5
sI62
F3.5
sI914
F4.0
sI377
F4.0
sI858
F3.5
sI253
F5.0
sI158
F3.5
ssI583
(dp572
I296
F5.0
sI858
F5.0
sI318
F5.0
ssI584
(dp573
I1
F5.0
sI163
F3.5
sI356
F5.0
sI293
F4.0
sI593
F5.0
sI104
F3.5
sI780
F4.0
sI648
F3.5
sI364
F3.5
sI110
F5.0
sI47
F3.5
sI912
F3.5
sI296
F4.0
sI595
F4.0
sI377
F3.5
sI527
F5.0
sI60
F3.5
sI253
F4.0
sI318
F5.0
ssI585
(dp574
I1
F4.0
sI898
F5.0
sI260
F4.0
sI901
F4.0
sI750
F5.0
sI903
F5.0
sI904
F5.0
sI905
F5.0
sI907
F5.0
sI908
F5.0
sI909
F5.0
sI910
F5.0
sI527
F5.0
sI912
F5.0
sI913
F5.0
sI915
F5.0
sI916
F5.0
sI21
F4.0
sI919
F5.0
sI920
F4.0
sI921
F4.0
sI922
F5.0
sI923
F5.0
sI924
F5.0
sI541
F5.0
sI926
F5.0
sI417
F4.0
sI34
F4.0
sI933
F5.0
sI39
F4.0
sI296
F5.0
sI940
F5.0
sI45
F4.0
sI945
F5.0
sI50
F5.0
sI947
F5.0
sI950
F5.0
sI951
F5.0
sI441
F4.0
sI954
F4.0
sI955
F5.0
sI318
F4.0
sI965
F5.0
sI838
F4.0
sI929
F4.0
sI973
F5.0
sI334
F4.0
sI720
F4.0
sI593
F5.0
sI467
F4.0
sI471
F4.0
sI858
F5.0
sI911
F4.0
sI348
F4.0
sI356
F4.0
sI357
F4.0
sI745
F4.0
sI235
F4.0
sI110
F4.0
sI936
F4.0
sI892
F4.0
sI125
F4.0
sI946
F5.0
ssI586
(dp575
I480
F5.0
sI1
F4.0
sI356
F4.0
sI165
F3.5
sI296
F5.0
sI780
F4.0
sI527
F4.0
sI608
F5.0
sI318
F4.0
ssI587
(dp576
I515
F4.0
sI902
F4.0
sI903
F5.0
sI904
F4.0
sI265
F3.5
sI778
F4.0
sI908
F5.0
sI909
F4.0
sI910
F4.0
sI527
F5.0
sI272
F4.0
sI913
F5.0
sI659
F4.5
sI942
F4.0
sI150
F4.5
sI919
F4.5
sI920
F5.0
sI25
F4.0
sI154
F4.0
sI923
F5.0
sI668
F3.5
sI541
F4.0
sI926
F5.0
sI800
F3.5
sI929
F4.0
sI34
F3.5
sI933
F4.0
sI296
F3.5
sI924
F4.0
sI45
F4.0
sI922
F4.5
sI47
F3.5
sI306
F3.5
sI947
F4.0
sI52
F4.0
sI905
F4.0
sI953
F4.0
sI58
F4.5
sI509
F4.0
sI906
F4.0
sI318
F4.5
sI321
F4.5
sI194
F4.5
sI965
F4.0
sI457
F4.5
sI970
F3.5
sI951
F3.5
sI930
F4.0
sI718
F4.0
sI593
F4.0
sI599
F3.5
sI345
F4.0
sI858
F5.0
sI475
F4.0
sI954
F4.0
sI608
F4.0
sI912
F5.0
sI50
F4.5
sI911
F5.0
sI750
F4.0
sI111
F4.0
sI928
F4.5
sI936
F4.0
sI246
F5.0
sI247
F3.5
sI955
F4.0
sI377
F3.5
sI969
F3.5
sI899
F5.0
sI125
F4.5
sI946
F5.0
ssI588
(dp577
I6
F4.0
sI300
F4.0
sI527
F5.0
sI21
F4.0
sI150
F4.0
sI25
F4.0
sI153
F4.0
sI32
F4.0
sI161
F4.0
sI296
F5.0
sI428
F4.0
sI47
F5.0
sI50
F5.0
sI318
F5.0
sI457
F5.0
sI590
F4.0
sI592
F4.0
sI593
F5.0
sI344
F4.0
sI475
F4.0
sI733
F5.0
sI356
F5.0
sI110
F5.0
sI377
F4.0
sI380
F5.0
ssI589
(dp578
I10
F4.0
sI780
F4.0
sI405
F4.0
sI150
F4.0
sI292
F4.0
sI552
F4.0
sI47
F5.0
sI457
F4.0
sI442
F4.0
sI316
F4.0
sI329
F4.0
sI588
F4.0
sI589
F4.0
sI590
F4.0
sI474
F4.0
sI733
F4.0
sI95
F4.0
sI480
F5.0
sI353
F4.0
sI227
F4.0
sI349
F4.0
sI377
F5.0
sI380
F4.0
ssI590
(dp579
I6
F4.0
sI265
F4.0
sI266
F4.0
sI141
F4.0
sI527
F4.0
sI150
F5.0
sI151
F4.0
sI25
F5.0
sI288
F4.0
sI161
F4.0
sI34
F4.0
sI292
F4.0
sI165
F4.0
sI551
F4.0
sI296
F4.0
sI434
F4.0
sI47
F4.0
sI50
F5.0
sI223
F5.0
sI317
F4.0
sI318
F5.0
sI457
F5.0
sI204
F4.0
sI589
F4.0
sI337
F4.0
sI342
F4.0
sI293
F4.0
sI480
F4.0
sI225
F4.0
sI356
F4.0
sI485
F4.0
sI235
F4.0
sI110
F5.0
sI368
F4.0
sI377
F4.0
sI380
F4.0
ssI591
(dp580
I592
F3.5
sI953
F4.5
sI370
F3.5
sI783
F4.0
ssI592
(dp581
I480
F4.0
sI353
F4.0
sI260
F5.0
sI165
F5.0
sI104
F5.0
sI780
F5.0
sI10
F4.0
sI588
F4.0
sI589
F5.0
sI110
F4.0
sI367
F4.0
sI785
F5.0
sI150
F4.0
sI356
F4.0
sI527
F4.0
sI380
F5.0
sI736
F4.0
sI223
F5.0
ssI593
(dp582
I648
F4.0
sI780
F5.0
sI141
F5.0
sI20
F4.0
sI277
F4.0
sI150
F4.0
sI25
F5.0
sI543
F5.0
sI32
F5.0
sI292
F4.0
sI165
F4.0
sI296
F5.0
sI555
F5.0
sI172
F5.0
sI47
F4.0
sI306
F4.0
sI307
F4.0
sI185
F5.0
sI442
F5.0
sI319
F5.0
sI288
F5.0
sI196
F4.0
sI454
F5.0
sI353
F5.0
sI457
F4.0
sI587
F4.0
sI589
F4.0
sI593
F4.0
sI597
F4.0
sI344
F4.0
sI95
F4.0
sI225
F4.0
sI227
F4.0
sI356
F5.0
sI357
F5.0
sI616
F4.0
sI367
F4.0
sI497
F5.0
sI500
F4.0
sI552
F4.0
sI246
F4.0
sI377
F5.0
sI708
F5.0
sI508
F5.0
sI509
F5.0
sI382
F4.0
sI533
F4.0
ssI594
(dp583
I608
F5.0
sI1
F4.0
sI162
F5.0
sI260
F5.0
sI549
F5.0
sI296
F5.0
sI110
F5.0
sI206
F4.0
sI527
F5.0
sI913
F5.0
sI21
F5.0
sI246
F4.0
sI858
F5.0
sI541
F4.0
ssI595
(dp584
I1
F5.0
sI899
F5.0
sI900
F4.0
sI262
F5.0
sI904
F5.0
sI265
F4.0
sI778
F5.0
sI919
F5.0
sI908
F5.0
sI13
F5.0
sI272
F5.0
sI17
F4.0
sI914
F4.0
sI531
F5.0
sI661
F4.0
sI150
F4.0
sI535
F5.0
sI48
F4.0
sI162
F5.0
sI164
F4.0
sI549
F4.0
sI296
F5.0
sI556
F5.0
sI558
F4.0
sI176
F5.0
sI562
F4.0
sI318
F4.0
sI586
F4.0
sI206
F5.0
sI593
F5.0
sI596
F4.0
sI590
F5.0
sI608
F5.0
sI357
F4.0
sI235
F4.0
sI364
F4.0
sI111
F5.0
sI509
F5.0
sI917
F5.0
ssI596
(dp585
I1
F3.5
sI6
F4.0
sI10
F3.5
sI527
F4.5
sI16
F5.0
sI18
F3.5
sI535
F4.0
sI25
F4.0
sI541
F3.5
sI32
F5.0
sI36
F3.5
sI553
F3.5
sI555
F4.0
sI47
F4.0
sI50
F4.5
sI69
F4.0
sI70
F4.0
sI586
F3.5
sI587
F3.5
sI589
F4.0
sI590
F4.0
sI593
F4.0
sI597
F3.5
sI953
F4.0
sI608
F3.5
sI110
F4.0
sI111
F5.0
sI628
F4.0
sI648
F3.5
sI23
F3.5
sI141
F4.0
sI145
F4.5
sI147
F3.5
sI150
F3.5
sI156
F5.0
sI163
F3.5
sI165
F3.5
sI172
F3.5
sI194
F5.0
sI733
F4.0
sI223
F4.0
sI736
F3.5
sI247
F4.0
sI253
F4.0
sI259
F3.5
sI778
F4.5
sI780
F3.5
sI784
F3.5
sI288
F4.5
sI292
F3.5
sI293
F4.0
sI296
F5.0
sI300
F3.5
sI316
F3.5
sI318
F5.0
sI329
F3.5
sI337
F3.5
sI339
F3.5
sI344
F3.5
sI858
F5.0
sI350
F3.5
sI353
F4.5
sI356
F5.0
sI357
F3.5
sI377
F4.0
sI902
F4.0
sI903
F4.5
sI904
F4.5
sI910
F3.5
sI912
F4.5
sI924
F3.5
sI931
F4.0
sI428
F4.5
sI431
F4.0
sI441
F3.5
sI442
F4.0
sI443
F5.0
sI454
F4.0
sI457
F4.0
sI474
F3.5
sI480
F4.0
sI481
F4.0
sI485
F3.5
sI493
F3.5
sI500
F3.5
sI508
F3.5
ssI597
(dp586
I1
F5.0
sI898
F4.0
sI899
F5.0
sI260
F5.0
sI903
F5.0
sI904
F5.0
sI906
F4.0
sI11
F4.0
sI908
F5.0
sI909
F5.0
sI910
F5.0
sI911
F4.0
sI912
F4.0
sI913
F5.0
sI907
F5.0
sI916
F4.0
sI923
F5.0
sI924
F4.0
sI541
F5.0
sI671
F4.0
sI32
F4.0
sI34
F5.0
sI931
F4.0
sI164
F4.0
sI293
F4.0
sI39
F5.0
sI942
F4.0
sI943
F4.0
sI945
F5.0
sI946
F5.0
sI950
F5.0
sI951
F5.0
sI800
F5.0
sI451
F5.0
sI968
F4.0
sI969
F5.0
sI588
F5.0
sI589
F5.0
sI933
F4.0
sI480
F4.0
sI928
F4.0
sI356
F4.0
sI745
F5.0
sI492
F5.0
sI750
F5.0
sI497
F4.0
ssI598
(dp587
I1
F4.5
sI260
F5.0
sI11
F4.0
sI527
F4.0
sI88
F4.0
sI919
F4.0
sI923
F4.0
sI924
F4.0
sI161
F4.0
sI551
F4.0
sI296
F5.0
sI50
F5.0
sI180
F4.0
sI440
F4.0
sI318
F5.0
sI69
F4.0
sI588
F4.0
sI333
F5.0
sI590
F4.0
sI589
F4.0
sI594
F4.0
sI216
F5.0
sI858
F4.0
sI223
F5.0
sI356
F4.0
sI785
F4.0
sI104
F5.0
sI364
F4.0
sI110
F4.0
ssI599
(dp588
I356
F4.0
sI551
F4.5
sI260
F5.0
sI892
F3.5
sI39
F5.0
ssI600
(dp589
I588
F5.0
ssI601
(dp590
I493
F4.0
ssI602
(dp591
I2
F4.0
sI235
F4.0
sI260
F4.0
sI265
F4.0
sI778
F5.0
sI268
F4.0
sI527
F5.0
sI272
F4.0
sI515
F4.0
sI661
F5.0
sI534
F5.0
sI535
F5.0
sI25
F5.0
sI538
F5.0
sI156
F5.0
sI29
F5.0
sI589
F4.0
sI162
F5.0
sI164
F4.0
sI551
F5.0
sI296
F5.0
sI555
F4.0
sI300
F5.0
sI45
F4.0
sI47
F4.0
sI50
F5.0
sI318
F5.0
sI562
F4.0
sI608
F4.0
sI194
F4.0
sI353
F4.0
sI587
F4.0
sI588
F5.0
sI34
F4.0
sI590
F4.0
sI461
F4.0
sI593
F5.0
sI595
F5.0
sI85
F5.0
sI215
F4.0
sI36
F5.0
sI474
F5.0
sI475
F5.0
sI477
F4.0
sI223
F5.0
sI480
F4.0
sI97
F5.0
sI354
F4.0
sI356
F4.0
sI229
F4.0
sI783
F4.0
sI357
F4.0
sI764
F5.0
sI107
F4.0
sI364
F5.0
sI509
F4.0
sI497
F5.0
sI531
F4.0
sI500
F4.0
sI373
F4.0
sI246
F4.0
sI247
F5.0
sI508
F4.0
sI253
F4.0
ssI603
(dp592
I1
F4.0
sI2
F4.0
sI260
F5.0
sI6
F4.0
sI780
F4.0
sI527
F5.0
sI784
F5.0
sI277
F4.0
sI150
F4.0
sI32
F5.0
sI163
F4.0
sI551
F5.0
sI296
F5.0
sI442
F5.0
sI316
F4.0
sI62
F5.0
sI608
F5.0
sI457
F4.0
sI588
F5.0
sI589
F5.0
sI592
F4.0
sI466
F4.0
sI595
F5.0
sI596
F4.0
sI783
F5.0
sI733
F5.0
sI480
F5.0
sI104
F4.0
sI364
F5.0
sI594
F4.0
sI110
F5.0
sI370
F4.0
sI500
F4.0
sI380
F5.0
ssI604
(dp593
I32
F3.5
sI524
F4.5
ssI605
(dp594
I900
F4.0
sI261
F4.0
sI262
F4.0
sI648
F4.0
sI905
F5.0
sI780
F4.0
sI911
F5.0
sI912
F5.0
sI913
F5.0
sI146
F4.0
sI19
F4.0
sI150
F4.0
sI920
F5.0
sI923
F4.0
sI986
F4.0
sI926
F4.0
sI34
F5.0
sI934
F4.0
sI39
F4.0
sI938
F5.0
sI940
F5.0
sI942
F5.0
sI943
F4.0
sI904
F4.0
sI969
F5.0
sI951
F4.0
sI952
F4.0
sI953
F5.0
sI955
F4.0
sI457
F4.0
sI586
F4.0
sI588
F4.0
sI592
F4.0
sI468
F4.0
sI344
F5.0
sI858
F5.0
sI104
F4.0
sI745
F4.0
sI238
F4.0
sI616
F4.0
ssI606
(dp595
I296
F5.0
sI778
F5.0
sI235
F4.0
sI908
F5.0
sI175
F5.0
sI593
F3.5
sI904
F5.0
sI858
F5.0
sI911
F4.5
ssI607
(dp596
I1
F4.5
sI733
F4.0
sI3
F3.5
sI260
F4.5
sI7
F3.5
sI520
F3.5
sI10
F3.5
sI780
F3.5
sI783
F4.0
sI16
F3.5
sI785
F3.5
sI18
F4.0
sI431
F4.0
sI21
F3.5
sI150
F4.0
sI282
F3.5
sI303
F3.5
sI410
F3.5
sI31
F3.5
sI32
F3.5
sI161
F4.0
sI802
F3.5
sI163
F3.5
sI292
F3.5
sI165
F3.5
sI423
F3.5
sI296
F5.0
sI553
F4.0
sI647
F4.0
sI434
F3.5
sI47
F4.0
sI648
F3.5
sI50
F4.5
sI180
F3.5
sI996
F4.5
sI457
F4.0
sI440
F4.0
sI441
F3.5
sI543
F4.0
sI316
F3.5
sI778
F4.0
sI62
F3.5
sI832
F4.0
sI288
F4.0
sI69
F4.0
sI454
F4.0
sI329
F3.5
sI588
F4.0
sI333
F3.5
sI736
F3.5
sI589
F3.5
sI592
F3.5
sI593
F4.0
sI466
F3.5
sI852
F3.5
sI471
F4.0
sI608
F3.5
sI858
F4.5
sI349
F4.0
sI293
F4.5
sI224
F4.5
sI720
F4.0
sI356
F5.0
sI485
F3.5
sI362
F3.5
sI551
F4.0
sI110
F4.5
sI661
F3.5
sI368
F4.5
sI370
F3.5
sI318
F5.0
sI377
F3.5
sI380
F4.5
sI253
F4.0
sI277
F3.5
ssI608
(dp597
I1
F4.0
sI912
F5.0
sI6
F5.0
sI903
F5.0
sI904
F5.0
sI778
F4.0
sI908
F5.0
sI910
F5.0
sI527
F4.0
sI16
F4.0
sI913
F5.0
sI787
F4.0
sI532
F4.0
sI149
F4.0
sI25
F4.0
sI431
F4.0
sI924
F5.0
sI541
F4.0
sI30
F4.0
sI32
F4.0
sI994
F4.0
sI34
F4.0
sI931
F4.0
sI36
F4.0
sI296
F5.0
sI300
F4.0
sI306
F5.0
sI302
F4.0
sI47
F5.0
sI50
F5.0
sI307
F4.0
sI951
F5.0
sI955
F5.0
sI190
F5.0
sI757
F4.0
sI320
F4.0
sI800
F4.0
sI198
F5.0
sI841
F4.0
sI290
F5.0
sI589
F4.0
sI592
F4.0
sI593
F5.0
sI850
F5.0
sI599
F5.0
sI858
F5.0
sI348
F5.0
sI608
F5.0
sI865
F4.0
sI866
F4.0
sI235
F5.0
sI750
F5.0
sI111
F5.0
sI373
F4.0
sI247
F4.0
sI632
F4.0
sI123
F5.0
sI509
F4.0
ssI609
(dp598
I290
F5.0
sI923
F5.0
sI390
F5.0
sI593
F5.0
sI81
F5.0
sI501
F5.0
sI858
F5.0
sI735
F5.0
sI188
F5.0
sI565
F5.0
ssI610
(dp599
I538
F4.0
ssI611
(dp600
I588
F5.0
sI356
F5.0
ssI612
(dp601
I673
F3.5
sI362
F3.5
sI364
F4.0
ssI613
(dp602
I260
F5.0
sI904
F3.5
sI745
F4.5
sI750
F3.5
sI593
F5.0
sI50
F5.0
sI858
F5.0
sI318
F4.0
ssI614
(dp603
I515
F5.0
sI260
F4.0
sI261
F4.0
sI905
F5.0
sI910
F5.0
sI913
F5.0
sI899
F5.0
sI923
F5.0
sI28
F4.0
sI928
F5.0
sI933
F5.0
sI296
F5.0
sI942
F5.0
sI945
F4.0
sI947
F4.0
sI52
F4.0
sI309
F5.0
sI950
F5.0
sI951
F5.0
sI955
F5.0
sI965
F4.0
sI593
F4.0
sI858
F5.0
sI608
F5.0
sI994
F5.0
sI236
F5.0
sI500
F4.0
ssI615
(dp604
I1
F4.0
sI260
F3.5
sI6
F3.5
sI520
F4.0
sI778
F3.5
sI780
F3.5
sI527
F4.5
sI786
F3.5
sI541
F4.0
sI293
F4.5
sI296
F5.0
sI555
F4.5
sI47
F4.5
sI442
F4.5
sI60
F3.5
sI608
F4.0
sI589
F4.0
sI593
F4.0
sI466
F4.0
sI858
F4.0
sI733
F3.5
sI480
F4.0
sI356
F4.0
sI745
F4.0
sI364
F4.0
ssI616
(dp605
I608
F4.0
sI1
F4.0
sI802
F4.0
sI36
F4.0
sI805
F4.0
sI832
F5.0
sI647
F4.0
sI780
F4.0
sI140
F4.0
sI765
F4.0
sI18
F4.0
sI788
F4.0
sI25
F4.0
sI376
F4.0
sI260
F5.0
sI858
F4.0
sI736
F4.0
sI733
F4.0
sI852
F4.0
ssI617
(dp606
I356
F4.0
sI364
F4.0
sI527
F5.0
sI593
F5.0
sI500
F4.0
sI919
F4.0
sI253
F4.0
ssI618
(dp607
I111
F5.0
sI912
F5.0
sI593
F5.0
sI50
F5.0
sI541
F5.0
sI319
F4.0
ssI619
(dp608
I161
F4.0
sI196
F4.0
sI246
F5.0
sI337
F5.0
sI168
F5.0
sI553
F4.0
sI588
F5.0
sI237
F4.0
sI590
F4.0
sI111
F5.0
sI296
F5.0
sI50
F5.0
sI150
F5.0
sI185
F4.0
sI47
F4.0
sI380
F4.0
sI349
F4.0
sI318
F5.0
sI293
F4.0
ssI620
(dp609
I260
F4.0
sI901
F3.5
sI902
F5.0
sI296
F4.0
sI914
F4.5
sI912
F3.5
sI50
F4.0
sI915
F3.5
sI916
F4.0
sI919
F4.0
sI924
F4.0
ssI621
(dp610
I356
F4.0
sI5
F4.5
sI551
F4.5
sI296
F4.5
sI527
F5.0
sI440
F4.0
sI914
F3.5
sI919
F4.5
sI344
F3.5
sI345
F5.0
sI954
F5.0
sI920
F4.5
sI253
F3.5
ssI622
(dp611
I593
F4.0
sI260
F5.0
sI318
F5.0
ssI623
(dp612
I480
F4.0
sI1
F4.5
sI34
F4.0
sI356
F5.0
sI780
F3.5
sI296
F5.0
sI588
F4.0
sI364
F4.0
sI589
F3.5
sI110
F4.0
sI367
F3.5
sI648
F4.0
sI736
F4.0
sI595
F3.5
sI150
F4.0
sI344
F3.5
sI377
F4.0
sI527
F4.5
sI733
F4.0
sI318
F4.5
ssI624
(dp613
I1
F5.0
sI260
F5.0
sI10
F4.0
sI599
F5.0
sI941
F4.0
sI16
F5.0
sI145
F4.0
sI919
F4.0
sI485
F4.0
sI410
F4.0
sI858
F5.0
sI924
F4.0
sI541
F4.0
sI543
F4.0
sI161
F4.0
sI163
F3.5
sI165
F4.0
sI585
F4.0
sI296
F5.0
sI553
F3.5
sI555
F4.0
sI300
F4.0
sI818
F3.5
sI47
F4.0
sI50
F4.0
sI180
F3.5
sI457
F4.0
sI952
F4.5
sI671
F5.0
sI329
F4.0
sI923
F4.5
sI720
F4.0
sI593
F5.0
sI594
F4.0
sI596
F4.0
sI471
F4.0
sI474
F4.0
sI348
F4.0
sI349
F4.0
sI223
F4.0
sI608
F4.0
sI912
F4.5
sI101
F3.5
sI785
F4.0
sI616
F4.0
sI745
F4.0
sI107
F4.0
sI492
F4.0
sI500
F4.0
sI377
F4.0
ssI625
(dp614
I337
F4.0
sI509
F3.5
sI527
F5.0
ssI626
(dp615
I928
F4.0
sI785
F4.0
sI968
F4.0
sI366
F4.0
sI593
F4.0
sI247
F4.0
sI377
F5.0
sI858
F5.0
sI380
F5.0
sI223
F4.0
ssI627
(dp616
I260
F4.0
sI6
F4.0
sI648
F3.5
sI266
F4.0
sI527
F4.0
sI147
F4.0
sI288
F3.5
sI36
F4.0
sI165
F3.5
sI296
F3.5
sI47
F4.0
sI50
F4.0
sI778
F3.5
sI318
F4.5
sI832
F3.5
sI839
F3.5
sI589
F4.0
sI593
F4.0
sI597
F3.5
sI858
F5.0
sI293
F3.5
sI608
F3.5
sI353
F3.5
sI110
F4.0
sI508
F3.5
ssI628
(dp617
I32
F3.5
sI293
F5.0
sI555
F3.5
sI342
F4.0
sI58
F3.5
sI29
F4.0
ssI629
(dp618
I368
F5.0
sI587
F5.0
sI356
F5.0
sI457
F5.0
sI458
F5.0
sI491
F5.0
sI110
F5.0
sI208
F5.0
sI593
F5.0
sI500
F5.0
sI590
F5.0
sI539
F5.0
sI380
F4.0
sI586
F5.0
sI597
F4.0
ssI630
(dp619
I1
F4.0
sI356
F4.5
sI904
F5.0
sI908
F4.0
sI912
F5.0
sI916
F4.0
sI858
F5.0
ssI631
(dp620
I953
F4.0
sI318
F5.0
sI47
F5.0
ssI632
(dp621
I480
F4.5
sI593
F5.0
sI296
F5.0
sI780
F4.0
sI589
F5.0
sI110
F5.0
sI344
F4.0
sI150
F4.0
sI88
F4.5
sI318
F4.5
ssI633
(dp622
I356
F4.0
sI457
F4.0
sI590
F4.0
sI21
F4.0
sI150
F4.0
sI318
F4.0
ssI634
(dp623
I858
F5.0
sI180
F3.5
sI318
F5.0
ssI635
(dp624
I296
F3.5
sI593
F5.0
sI903
F4.0
sI608
F4.5
sI111
F3.5
ssI636
(dp625
I32
F4.0
sI68
F4.0
sI36
F4.0
sI766
F5.0
sI648
F4.0
sI778
F5.0
sI562
F4.0
sI85
F5.0
sI608
F5.0
sI25
F4.0
sI640
F4.0
sI29
F4.0
sI30
F4.0
ssI637
(dp626
I32
F5.0
sI524
F5.0
sI750
F5.0
sI849
F4.0
sI50
F5.0
sI24
F3.5
sI858
F5.0
sI318
F5.0
ssI638
(dp627
I898
F3.5
sI327
F4.0
ssI639
(dp628
I515
F4.0
sI11
F4.0
sI277
F4.0
sI150
F4.0
sI151
F4.0
sI280
F4.0
sI282
F4.0
sI410
F4.0
sI161
F4.0
sI39
F4.0
sI296
F4.0
sI299
F4.0
sI300
F4.0
sI440
F4.0
sI318
F5.0
sI457
F4.0
sI590
F4.0
sI593
F4.0
sI225
F4.0
sI110
F4.0
sI111
F5.0
sI371
F4.0
sI246
F5.0
ssI640
(dp629
I608
F5.0
sI3
F4.0
sI36
F5.0
sI74
F4.0
sI761
F5.0
sI780
F5.0
sI141
F5.0
sI494
F4.0
sI17
F4.0
sI116
F5.0
sI830
F4.0
sI631
F5.0
sI260
F5.0
sI858
F5.0
sI62
F5.0
ssI641
(dp630
I1
F4.0
sI2
F4.0
sI5
F4.0
sI6
F4.0
sI7
F4.0
sI736
F5.0
sI364
F4.0
sI11
F4.0
sI140
F4.0
sI141
F5.0
sI786
F4.0
sI350
F4.0
sI22
F4.0
sI345
F5.0
sI536
F4.0
sI282
F4.0
sI27
F4.0
sI780
F5.0
sI410
F4.0
sI150
F4.0
sI31
F4.0
sI32
F4.0
sI289
F4.0
sI34
F4.0
sI475
F4.0
sI36
F4.0
sI165
F4.0
sI474
F5.0
sI39
F5.0
sI372
F4.0
sI647
F4.0
sI300
F4.0
sI500
F5.0
sI46
F4.0
sI628
F4.0
sI562
F5.0
sI52
F4.0
sI261
F5.0
sI608
F4.0
sI440
F5.0
sI185
F4.0
sI705
F4.0
sI61
F4.0
sI62
F4.0
sI832
F5.0
sI539
F5.0
sI480
F4.0
sI262
F5.0
sI708
F4.0
sI837
F4.0
sI838
F5.0
sI457
F4.0
sI74
F4.0
sI587
F4.0
sI588
F4.0
sI589
F4.0
sI802
F4.0
sI337
F4.0
sI593
F5.0
sI339
F5.0
sI852
F4.0
sI597
F4.0
sI342
F4.0
sI344
F5.0
sI292
F4.0
sI218
F4.0
sI219
F4.0
sI349
F4.0
sI94
F4.0
sI351
F4.0
sI224
F4.0
sI356
F5.0
sI357
F5.0
sI231
F5.0
sI380
F4.0
sI236
F4.0
sI381
F5.0
sI805
F5.0
sI116
F5.0
sI318
F5.0
sI377
F5.0
sI252
F4.0
sI253
F4.0
sI638
F4.0
ssI642
(dp631
I800
F4.0
sI162
F5.0
sI899
F5.0
sI549
F4.0
sI969
F4.0
sI942
F4.0
sI913
F5.0
sI950
F5.0
sI954
F5.0
sI924
F4.0
sI933
F4.0
ssI643
(dp632
I50
F5.0
sI260
F5.0
sI858
F5.0
sI318
F5.0
ssI644
(dp633
I608
F5.0
sI235
F5.0
sI348
F5.0
sI527
F5.0
ssI645
(dp634
I913
F3.5
sI266
F3.5
sI316
F4.0
sI277
F3.5
ssI646
(dp635
I1
F5.0
sI258
F4.0
sI3
F5.0
sI260
F5.0
sI519
F4.0
sI780
F5.0
sI783
F5.0
sI788
F5.0
sI432
F4.0
sI552
F4.0
sI813
F4.0
sI48
F5.0
sI435
F4.0
sI952
F4.0
sI186
F4.0
sI316
F4.0
sI317
F4.0
sI575
F4.0
sI837
F4.0
sI586
F5.0
sI587
F4.0
sI588
F5.0
sI719
F4.0
sI720
F5.0
sI466
F4.0
sI595
F5.0
sI596
F4.0
sI480
F4.0
sI356
F5.0
sI231
F4.0
sI364
F5.0
sI594
F4.0
sI368
F4.0
sI881
F4.0
sI500
F5.0
sI888
F4.0
sI379
F4.0
ssI647
(dp636
I640
F4.0
sI1
F4.0
sI259
F4.0
sI260
F5.0
sI6
F4.0
sI265
F4.0
sI527
F5.0
sI16
F4.0
sI922
F5.0
sI431
F4.0
sI541
F5.0
sI926
F5.0
sI930
F4.0
sI34
F5.0
sI923
F5.0
sI293
F5.0
sI296
F5.0
sI555
F4.0
sI300
F5.0
sI50
F5.0
sI47
F5.0
sI306
F4.0
sI949
F4.0
sI190
F5.0
sI319
F5.0
sI457
F4.0
sI290
F4.0
sI589
F4.0
sI593
F5.0
sI858
F5.0
sI896
F4.0
sI474
F4.0
sI349
F4.0
sI608
F5.0
sI912
F5.0
sI866
F5.0
sI229
F5.0
sI999
F4.0
sI232
F4.0
sI745
F5.0
sI621
F4.0
sI111
F5.0
sI112
F4.0
sI373
F4.0
sI247
F5.0
sI377
F5.0
ssI648
(dp637
I288
F4.5
sI97
F4.5
sI356
F4.5
sI293
F4.5
sI6
F4.0
sI785
F3.5
sI296
F5.0
sI778
F5.0
sI555
F3.5
sI750
F4.0
sI175
F4.0
sI912
F4.0
sI552
F3.5
sI500
F4.0
sI608
F4.0
sI858
F3.5
sI367
F3.5
sI318
F4.5
ssI649
(dp638
I1
F4.0
sI261
F5.0
sI265
F5.0
sI10
F5.0
sI527
F4.0
sI272
F4.0
sI531
F4.0
sI150
F4.0
sI153
F4.0
sI32
F4.0
sI161
F4.0
sI293
F4.0
sI39
F4.0
sI296
F5.0
sI44
F4.0
sI434
F4.0
sI50
F4.0
sI307
F4.0
sI440
F4.0
sI58
F4.0
sI319
F4.0
sI288
F5.0
sI454
F4.0
sI457
F4.0
sI333
F4.0
sI589
F4.0
sI592
F4.0
sI593
F5.0
sI339
F4.0
sI597
F4.0
sI344
F5.0
sI608
F5.0
sI474
F5.0
sI477
F5.0
sI350
F5.0
sI223
F4.0
sI480
F4.0
sI491
F4.0
sI236
F4.0
sI497
F4.0
sI371
F4.0
sI377
F4.0
sI508
F4.0
sI509
F5.0
ssI650
(dp639
I736
F4.0
sI36
F5.0
sI694
F4.0
sI780
F5.0
sI10
F4.0
sI11
F5.0
sI140
F4.0
sI494
F4.0
sI17
F4.0
sI86
F5.0
sI89
F4.0
sI191
F4.0
sI62
F5.0
sI95
F4.0
ssI651
(dp640
I260
F5.0
sI318
F4.0
ssI652
(dp641
I388
F4.0
sI140
F4.0
sI22
F4.0
sI24
F5.0
sI998
F4.0
sI539
F4.0
sI293
F4.0
sI422
F3.5
sI299
F4.0
sI179
F4.0
sI185
F4.0
sI442
F4.0
sI316
F5.0
sI319
F4.0
sI194
F4.0
sI708
F4.0
sI71
F4.0
sI780
F5.0
sI588
F4.0
sI719
F4.0
sI592
F4.0
sI338
F4.0
sI339
F4.0
sI597
F3.5
sI984
F4.0
sI988
F4.5
sI477
F4.0
sI94
F4.0
sI223
F4.0
sI550
F5.0
sI358
F4.0
sI494
F4.5
sI627
F4.0
sI628
F4.0
sI377
F4.0
sI378
F4.0
sI125
F4.0
ssI653
(dp642
I588
F5.0
sI1
F4.0
sI34
F4.0
sI356
F5.0
sI261
F5.0
sI838
F4.0
sI39
F5.0
sI457
F4.0
sI364
F5.0
sI590
F4.0
sI720
F5.0
sI440
F4.0
sI595
F5.0
sI500
F4.0
sI150
F4.0
sI216
F5.0
sI986
F4.0
sI539
F4.0
sI575
F4.0
ssI654
(dp643
I1
F5.0
sI5
F4.0
sI520
F4.0
sI10
F4.0
sI11
F4.5
sI527
F5.0
sI17
F4.5
sI19
F4.5
sI24
F4.5
sI539
F4.0
sI541
F4.0
sI542
F3.5
sI543
F4.0
sI32
F5.0
sI34
F4.5
sI36
F4.5
sI551
F5.0
sI552
F4.0
sI555
F4.0
sI47
F4.5
sI50
F5.0
sI60
F3.5
sI62
F4.5
sI70
F3.5
sI585
F3.5
sI586
F4.5
sI587
F5.0
sI588
F4.5
sI589
F5.0
sI590
F4.5
sI592
F4.5
sI593
F4.5
sI594
F4.0
sI595
F5.0
sI597
F4.0
sI94
F4.0
sI608
F4.0
sI104
F4.5
sI105
F4.0
sI107
F4.0
sI110
F4.5
sI112
F4.0
sI531
F5.0
sI805
F4.5
sI647
F4.5
sI648
F4.5
sI141
F4.0
sI661
F4.0
sI150
F5.0
sI153
F3.5
sI158
F4.0
sI671
F4.0
sI161
F4.5
sI165
F4.0
sI172
F4.0
sI180
F4.0
sI186
F3.5
sI733
F4.0
sI223
F5.0
sI225
F4.5
sI231
F4.0
sI235
F4.5
sI236
F4.0
sI761
F3.5
sI252
F3.5
sI253
F4.0
sI260
F5.0
sI262
F5.0
sI780
F4.0
sI783
F4.0
sI802
F4.5
sI292
F4.5
sI293
F4.5
sI296
F5.0
sI818
F3.5
sI316
F4.0
sI317
F4.0
sI318
F5.0
sI319
F4.0
sI832
F4.5
sI329
F4.0
sI653
F3.5
sI337
F4.0
sI339
F4.0
sI344
F4.5
sI858
F4.5
sI349
F4.0
sI350
F4.0
sI356
F4.0
sI743
F3.5
sI364
F5.0
sI366
F4.0
sI367
F4.5
sI368
F3.5
sI370
F4.0
sI372
F4.5
sI376
F4.0
sI377
F4.0
sI380
F4.0
sI748
F4.0
sI919
F5.0
sI410
F4.0
sI924
F4.0
sI415
F4.5
sI434
F4.0
sI440
F4.0
sI442
F3.5
sI450
F4.0
sI454
F4.0
sI673
F3.5
sI457
F4.5
sI466
F4.5
sI474
F4.0
sI480
F4.5
sI500
F4.5
ssI655
(dp644
I32
F4.0
sI353
F4.0
sI2
F4.0
sI163
F4.0
sI296
F4.0
sI588
F4.5
sI364
F4.5
sI18
F4.0
sI750
F5.0
sI367
F4.0
sI368
F5.0
sI50
F5.0
sI595
F4.0
sI316
F4.0
sI253
F4.0
ssI656
(dp645
I900
F5.0
sI940
F5.0
sI779
F4.0
sI588
F5.0
sI909
F5.0
sI913
F5.0
sI952
F5.0
sI969
F5.0
sI24
F4.0
sI345
F5.0
sI858
F5.0
sI932
F5.0
sI412
F5.0
sI926
F5.0
ssI657
(dp646
I608
F4.0
sI161
F4.0
sI292
F4.0
sI296
F5.0
sI329
F4.0
sI590
F4.0
sI593
F5.0
sI150
F4.0
sI457
F4.0
sI253
F4.0
ssI658
(dp647
I527
F5.0
sI912
F5.0
sI150
F5.0
sI151
F5.0
sI161
F4.0
sI34
F4.0
sI58
F5.0
sI318
F4.0
sI588
F5.0
sI802
F5.0
sI593
F4.0
sI594
F5.0
sI339
F4.0
sI468
F4.0
sI314
F4.0
sI608
F5.0
sI356
F5.0
sI491
F4.0
sI364
F5.0
sI110
F4.0
sI111
F5.0
sI497
F5.0
sI62
F5.0
sI508
F4.0
ssI659
(dp648
I515
F4.0
sI260
F5.0
sI22
F4.0
sI471
F4.0
sI14
F4.0
sI527
F4.0
sI16
F5.0
sI17
F4.0
sI150
F5.0
sI151
F4.0
sI25
F5.0
sI29
F4.0
sI32
F4.0
sI497
F4.0
sI162
F4.0
sI36
F4.0
sI167
F4.0
sI534
F4.0
sI300
F5.0
sI306
F4.0
sI47
F4.0
sI50
F4.0
sI307
F4.0
sI308
F4.0
sI608
F5.0
sI194
F4.0
sI452
F4.0
sI454
F4.0
sI457
F4.0
sI202
F4.0
sI375
F4.0
sI589
F5.0
sI590
F4.0
sI337
F4.0
sI339
F5.0
sI215
F4.0
sI344
F4.0
sI858
F5.0
sI92
F4.0
sI593
F5.0
sI480
F4.0
sI356
F4.0
sI229
F5.0
sI230
F4.0
sI529
F5.0
sI380
F5.0
sI235
F5.0
sI364
F5.0
sI367
F4.0
sI113
F4.0
sI500
F5.0
sI373
F4.0
sI247
F4.0
sI249
F4.0
sI281
F4.0
sI509
F4.0
ssI660
(dp649
I32
F4.0
sI260
F4.5
ssI661
(dp650
I481
F3.5
sI318
F5.0
sI527
F4.5
ssI662
(dp651
I2
F5.0
sI266
F4.0
sI527
F5.0
sI150
F4.0
sI282
F4.0
sI539
F4.0
sI158
F4.0
sI34
F4.0
sI292
F4.0
sI185
F4.0
sI317
F4.0
sI318
F5.0
sI455
F4.0
sI457
F4.0
sI586
F4.0
sI587
F4.0
sI588
F4.0
sI337
F4.0
sI339
F4.0
sI597
F4.0
sI219
F5.0
sI356
F5.0
sI595
F4.0
sI500
F4.0
sI377
F4.0
sI508
F4.0
ssI663
(dp652
I480
F3.5
sI1
F4.0
sI356
F4.0
sI593
F4.0
ssI664
(dp653
I1
F3.5
sI260
F4.5
sI6
F4.0
sI648
F4.5
sI778
F4.5
sI780
F3.5
sI16
F4.0
sI431
F4.0
sI367
F3.5
sI924
F4.0
sI29
F4.0
sI32
F5.0
sI163
F4.0
sI292
F3.5
sI293
F4.5
sI296
F5.0
sI47
F4.5
sI50
F4.5
sI318
F4.5
sI198
F4.0
sI288
F4.0
sI70
F3.5
sI457
F3.5
sI589
F4.5
sI592
F4.0
sI593
F4.5
sI858
F4.0
sI733
F4.0
sI223
F4.0
sI480
F3.5
sI353
F4.0
sI356
F4.5
sI741
F4.0
sI165
F3.5
sI231
F4.0
sI110
F4.0
sI111
F4.0
sI377
F4.0
sI541
F4.0
ssI665
(dp654
I260
F4.0
sI364
F5.0
sI266
F4.0
sI527
F5.0
sI16
F4.0
sI276
F4.0
sI919
F4.0
sI920
F4.0
sI539
F4.0
sI158
F4.0
sI32
F4.0
sI292
F4.0
sI168
F5.0
sI48
F4.0
sI317
F5.0
sI318
F5.0
sI450
F4.0
sI195
F4.0
sI587
F5.0
sI588
F4.0
sI590
F4.0
sI593
F4.0
sI595
F5.0
sI596
F5.0
sI597
F5.0
sI216
F4.0
sI218
F4.0
sI912
F5.0
sI356
F4.0
sI104
F4.0
sI236
F4.0
sI296
F4.0
sI122
F4.0
sI508
F4.0
sI253
F4.0
ssI666
(dp655
I480
F4.0
sI162
F5.0
sI356
F5.0
sI6
F5.0
sI296
F4.0
sI590
F5.0
sI593
F4.0
sI150
F4.0
sI344
F4.0
sI508
F4.0
ssI667
(dp656
I6
F4.0
sI736
F4.0
sI265
F4.0
sI272
F5.0
sI661
F4.0
sI150
F4.0
sI539
F4.0
sI32
F5.0
sI161
F4.0
sI36
F4.0
sI296
F5.0
sI41
F5.0
sI300
F4.0
sI306
F4.0
sI307
F5.0
sI308
F4.0
sI608
F5.0
sI58
F4.0
sI446
F4.0
sI321
F4.0
sI417
F4.0
sI594
F4.0
sI342
F4.0
sI345
F5.0
sI349
F4.0
sI480
F4.0
sI144
F5.0
sI356
F4.0
sI232
F4.0
sI745
F5.0
sI110
F4.0
sI501
F5.0
sI247
F4.0
sI508
F4.0
ssI668
(dp657
I296
F5.0
sI593
F5.0
sI318
F4.0
sI608
F5.0
ssI669
(dp658
I913
F5.0
sI785
F4.0
sI260
F5.0
sI968
F4.0
sI223
F4.0
ssI670
(dp659
I608
F5.0
sI1
F4.0
sI34
F4.0
sI36
F4.0
sI457
F4.0
sI47
F5.0
sI593
F5.0
sI50
F5.0
sI25
F5.0
sI527
F5.0
sI318
F5.0
ssI671
(dp660
I608
F4.0
sI1
F5.0
sI36
F4.0
sI230
F4.0
sI551
F5.0
sI296
F4.0
sI356
F5.0
sI745
F4.0
sI588
F4.0
sI589
F5.0
sI590
F4.0
sI529
F4.0
sI50
F4.5
sI919
F4.0
sI457
F4.0
sI260
F5.0
sI318
F5.0
ss.