(dp0
I2
(dp1
I17
F5.0
sI10
F4.0
sI47
F4.0
sI50
F4.0
sI39
F5.0
ssI4
(dp2
I10
F4.0
sI34
F5.0
ssI5
(dp3
I3
F4.0
sI39
F4.0
ssI7
(dp4
I40
F4.0
sI34
F4.0
ssI8
(dp5
I32
F5.0
sI50
F5.0
sI47
F5.0
ssI9
(dp6
I1
F4.0
sI36
F5.0
sI17
F4.0
ssI10
(dp7
I50
F5.0
ssI11
(dp8
I50
F5.0
ssI13
(dp9
I1
F5.0
ssI15
(dp10
I32
F4.0
sI5
F4.5
sI6
F4.0
sI82
F5.0
sI47
F5.0
sI16
F3.5
sI50
F5.0
sI21
F4.5
ssI16
(dp11
I50
F4.5
ssI17
(dp12
I32
F4.5
sI36
F4.5
sI6
F4.5
sI47
F5.0
sI50
F5.0
sI25
F4.5
sI29
F4.5
ssI18
(dp13
I32
F5.0
sI100
F4.0
sI6
F4.0
sI17
F4.0
sI85
F4.0
sI86
F4.0
sI25
F5.0
sI62
F4.0
ssI19
(dp14
I97
F4.0
sI34
F4.0
sI70
F4.0
sI14
F5.0
sI47
F5.0
sI16
F5.0
sI50
F4.0
ssI20
(dp15
I1
F3.5
sI34
F3.5
ssI21
(dp16
I32
F4.0
sI34
F4.0
sI47
F4.0
ssI22
(dp17
I32
F4.5
sI47
F3.5
ssI23
(dp18
I32
F4.0
sI34
F3.5
sI6
F3.5
sI11
F3.5
sI47
F4.5
sI16
F4.0
sI50
F4.0
sI24
F3.5
sI89
F4.0
sI58
F3.5
sI62
F4.0
ssI24
(dp19
I81
F4.0
sI6
F5.0
ssI25
(dp20
I32
F4.0
ssI26
(dp21
I32
F4.5
sI1
F5.0
sI50
F4.5
sI69
F4.5
sI47
F4.5
ssI27
(dp22
I73
F5.0
sI50
F4.0
ssI28
(dp23
I58
F5.0
sI21
F5.0
ssI30
(dp24
I1
F4.0
sI34
F4.0
sI100
F4.0
sI70
F4.0
sI6
F4.0
sI8
F4.0
sI11
F4.0
sI14
F4.0
sI47
F4.0
sI16
F5.0
sI50
F5.0
sI52
F5.0
sI21
F5.0
sI23
F4.0
sI25
F4.0
ssI31
(dp25
I32
F4.5
sI50
F3.5
sI31
F4.0
ssI32
(dp26
I2
F4.0
sI31
F4.0
ssI34
(dp27
I32
F5.0
sI50
F5.0
sI21
F4.0
sI70
F4.0
sI47
F5.0
ssI36
(dp28
I32
F5.0
sI68
F4.0
sI36
F4.0
sI50
F4.0
sI45
F4.0
sI18
F4.0
sI57
F4.0
sI55
F4.0
sI25
F4.0
sI58
F5.0
ssI37
(dp29
I1
F4.0
ssI38
(dp30
I16
F4.5
sI47
F4.0
ssI39
(dp31
I6
F4.0
sI70
F5.0
sI10
F5.0
sI47
F4.0
sI16
F5.0
sI22
F4.0
ssI40
(dp32
I50
F4.5
ssI41
(dp33
I2
F3.5
sI29
F4.0
ssI43
(dp34
I1
F4.0
sI34
F4.0
sI39
F4.0
ssI44
(dp35
I1
F4.0
sI3
F5.0
sI62
F5.0
ssI46
(dp36
I73
F5.0
ssI47
(dp37
I32
F4.0
sI1
F5.0
sI2
F5.0
sI50
F4.0
sI10
F4.0
ssI48
(dp38
I1
F4.0
sI2
F3.5
ssI49
(dp39
I2
F5.0
ssI50
(dp40
I10
F4.0
ssI55
(dp41
I32
F4.0
sI65
F5.0
sI6
F5.0
ssI56
(dp42
I1
F4.0
sI39
F5.0
sI10
F4.0
sI47
F4.0
sI16
F4.0
sI50
F4.0
sI29
F4.0
ssI57
(dp43
I17
F5.0
sI34
F5.0
sI11
F5.0
sI21
F4.0
ssI58
(dp44
I11
F5.0
ssI59
(dp45
I32
F4.5
sI50
F5.0
ssI60
(dp46
I16
F4.5
ssI61
(dp47
I2
F3.5
sI50
F5.0
ssI63
(dp48
I16
F5.0
sI1
F5.0
sI11
F3.5
ssI66
(dp49
I21
F4.0
ssI67
(dp50
I34
F5.0
sI6
F5.0
sI60
F4.0
sI43
F4.0
sI16
F4.0
sI17
F4.0
sI18
F4.0
sI86
F5.0
sI28
F5.0
ssI68
(dp51
I1
F4.0
sI11
F3.5
ssI69
(dp52
I1
F5.0
sI34
F4.0
sI5
F5.0
sI39
F4.5
sI2
F3.5
sI48
F4.5
sI19
F4.0
ssI70
(dp53
I32
F4.0
sI1
F5.0
sI3
F5.0
sI36
F4.0
sI5
F5.0
sI100
F4.0
sI81
F4.0
sI95
F5.0
sI76
F4.0
sI61
F4.0
sI17
F4.0
sI82
F4.0
sI52
F4.0
sI86
F4.0
sI25
F5.0
sI26
F5.0
sI79
F4.0
sI92
F5.0
sI58
F5.0
sI62
F5.0
sI63
F4.0
ssI72
(dp54
I1
F3.5
sI50
F4.0
sI47
F3.5
ssI73
(dp55
I32
F5.0
sI1
F5.0
sI36
F4.5
sI69
F4.0
sI6
F4.5
sI39
F4.0
sI47
F5.0
sI16
F4.0
sI50
F5.0
sI21
F3.5
sI25
F4.5
sI63
F3.5
sI70
F3.5
sI31
F3.5
ssI74
(dp56
I17
F4.0
sI10
F5.0
ssI75
(dp57
I32
F4.0
ssI76
(dp58
I45
F5.0
ssI77
(dp59
I32
F4.0
sI1
F4.0
sI34
F3.5
sI70
F3.5
sI6
F3.5
sI76
F3.5
sI47
F4.0
sI62
F3.5
ssI78
(dp60
I32
F5.0
sI2
F3.5
sI39
F5.0
sI10
F5.0
sI34
F3.5
sI47
F4.0
sI16
F5.0
sI50
F5.0
ssI80
(dp61
I32
F5.0
sI6
F4.0
sI7
F4.0
sI73
F5.0
sI45
F4.0
sI16
F5.0
sI21
F4.0
sI25
F4.0
ssI82
(dp62
I34
F5.0
sI47
F5.0
sI50
F4.0
sI39
F5.0
ssI83
(dp63
I50
F5.0
sI69
F3.5
sI6
F5.0
sI39
F4.0
ssI84
(dp64
I1
F3.5
ssI85
(dp65
I2
F5.0
sI10
F5.0
sI21
F4.0
ssI86
(dp66
I32
F5.0
sI97
F4.0
sI35
F4.0
sI36
F4.0
sI81
F5.0
sI39
F4.0
sI72
F4.0
sI41
F4.0
sI14
F4.0
sI47
F5.0
sI17
F5.0
sI18
F5.0
sI58
F4.0
sI85
F4.0
sI68
F4.0
sI26
F4.0
sI28
F4.0
sI29
F4.0
sI30
F5.0
ssI87
(dp67
I25
F4.0
sI52
F4.0
ssI88
(dp68
I2
F3.5
sI36
F4.0
sI7
F4.0
sI11
F3.5
sI47
F4.0
sI21
F3.5
sI62
F3.5
ssI89
(dp69
I1
F5.0
ssI90
(dp70
I32
F4.0
sI1
F4.0
sI36
F4.0
sI6
F4.0
sI81
F4.0
sI29
F5.0
ssI91
(dp71
I1
F5.0
sI19
F4.0
sI12
F3.5
sI23
F3.5
ssI92
(dp72
I32
F5.0
sI1
F5.0
sI34
F5.0
sI11
F4.0
sI45
F4.0
sI47
F5.0
sI50
F5.0
sI21
F5.0
ssI93
(dp73
I1
F4.0
sI34
F4.0
sI39
F4.0
sI11
F3.5
sI17
F4.0
sI21
F5.0
sI25
F3.5
sI62
F3.5
ssI94
(dp74
I16
F3.5
sI1
F4.0
sI50
F4.0
ssI95
(dp75
I70
F4.0
sI6
F5.0
sI11
F4.0
sI16
F5.0
sI88
F4.0
sI19
F4.0
sI86
F4.0
sI24
F4.0
sI63
F4.0
ssI96
(dp76
I50
F4.0
ssI97
(dp77
I32
F4.5
sI50
F5.0
ssI99
(dp78
I1
F4.0
sI50
F4.0
sI39
F4.0
ssI100
(dp79
I32
F5.0
sI1
F4.0
sI3
F4.0
sI25
F4.0
ssI102
(dp80
I34
F4.0
sI35
F4.0
sI36
F4.0
sI45
F4.0
sI14
F4.0
sI47
F4.0
sI50
F4.0
sI52
F4.0
sI78
F4.0
sI25
F4.0
sI58
F4.0
sI28
F4.0
ssI103
(dp81
I32
F5.0
sI29
F5.0
sI47
F4.5
ssI105
(dp82
I32
F4.0
sI10
F3.5
sI11
F3.5
sI47
F4.0
sI16
F5.0
sI50
F4.5
sI52
F4.0
sI21
F3.5
sI25
F4.0
ssI106
(dp83
I1
F4.0
ssI108
(dp84
I10
F4.0
ssI109
(dp85
I16
F3.5
sI47
F5.0
ssI110
(dp86
I3
F4.0
sI5
F4.0
sI6
F4.0
sI7
F4.0
sI9
F5.0
sI10
F4.0
sI11
F5.0
sI45
F5.0
sI16
F4.0
sI19
F4.0
sI23
F5.0
sI39
F5.0
sI95
F5.0
sI31
F4.0
ssI111
(dp87
I32
F3.5
sI7
F3.5
sI10
F3.5
sI11
F4.0
sI47
F4.0
sI50
F4.0
sI25
F4.0
sI39
F4.5
sI31
F3.5
ssI112
(dp88
I1
F5.0
sI3
F5.0
sI85
F5.0
sI41
F5.0
ssI113
(dp89
I65
F4.0
sI2
F5.0
sI36
F4.0
sI5
F5.0
sI6
F4.0
sI8
F5.0
sI9
F4.0
sI74
F5.0
sI79
F5.0
sI16
F5.0
sI20
F5.0
sI21
F5.0
sI89
F4.0
sI24
F5.0
sI25
F4.0
ssI114
(dp90
I10
F4.0
sI34
F5.0
ssI115
(dp91
I19
F4.0
sI2
F5.0
sI3
F5.0
sI45
F3.5
ssI116
(dp92
I47
F5.0
ssI118
(dp93
I16
F4.0
sI32
F4.0
sI50
F5.0
sI36
F4.0
sI47
F4.0
ssI119
(dp94
I32
F4.0
sI70
F4.0
sI6
F5.0
sI41
F4.0
sI47
F5.0
sI50
F4.0
sI21
F4.0
sI26
F5.0
sI62
F4.0
ssI120
(dp95
I32
F3.5
sI50
F4.0
sI47
F3.5
ssI121
(dp96
I1
F4.0
sI34
F5.0
sI6
F4.0
sI39
F4.0
sI40
F5.0
sI11
F4.0
sI17
F5.0
sI50
F5.0
sI95
F4.0
ssI122
(dp97
I73
F4.0
ssI124
(dp98
I1
F4.5
sI19
F4.0
sI47
F3.5
ssI125
(dp99
I1
F4.0
sI50
F5.0
sI11
F4.0
sI47
F4.5
ssI126
(dp100
I1
F5.0
sI58
F4.0
ssI127
(dp101
I5
F4.0
ssI128
(dp102
I1
F5.0
sI2
F4.0
sI39
F4.0
sI8
F4.0
sI7
F5.0
sI45
F5.0
sI47
F5.0
sI48
F5.0
sI86
F5.0
sI89
F5.0
sI79
F5.0
ssI130
(dp103
I10
F3.5
sI50
F3.5
sI36
F4.0
sI21
F3.5
ssI134
(dp104
I32
F4.5
sI1
F3.5
sI2
F4.5
sI36
F4.0
sI39
F3.5
sI10
F4.0
sI47
F4.5
sI16
F4.0
sI29
F5.0
ssI135
(dp105
I18
F4.0
ssI136
(dp106
I1
F4.5
ssI137
(dp107
I32
F5.0
sI10
F4.0
sI50
F5.0
ssI138
(dp108
I50
F4.0
ssI140
(dp109
I5
F4.5
ssI142
(dp110
I1
F4.0
ssI143
(dp111
I47
F4.5
ssI144
(dp112
I32
F5.0
sI10
F5.0
sI47
F4.0
ssI145
(dp113
I32
F5.0
sI10
F5.0
sI19
F5.0
sI47
F5.0
ssI146
(dp114
I1
F5.0
ssI147
(dp115
I50
F5.0
ssI148
(dp116
I32
F4.0
sI40
F4.5
sI58
F4.0
sI52
F4.0
sI29
F3.5
ssI149
(dp117
I47
F3.5
sI39
F3.5
ssI150
(dp118
I25
F4.0
sI10
F4.0
sI50
F4.5
sI21
F3.5
ssI151
(dp119
I32
F5.0
sI2
F4.0
sI47
F5.0
sI10
F5.0
sI21
F5.0
ssI152
(dp120
I32
F5.0
sI1
F3.5
sI6
F4.0
sI47
F5.0
sI50
F5.0
sI21
F3.5
sI95
F3.5
ssI153
(dp121
I32
F5.0
sI1
F5.0
sI34
F4.0
ssI154
(dp122
I1
F4.0
sI18
F5.0
sI3
F4.0
sI52
F5.0
sI85
F4.0
ssI156
(dp123
I36
F5.0
ssI157
(dp124
I32
F4.0
sI1
F3.5
sI10
F3.5
sI50
F4.0
sI47
F3.5
ssI159
(dp125
I25
F4.5
sI50
F4.5
sI62
F3.5
sI47
F3.5
ssI160
(dp126
I36
F4.0
ssI161
(dp127
I2
F4.0
sI36
F4.0
sI10
F4.0
sI11
F4.0
sI47
F4.0
sI17
F5.0
sI62
F4.0
sI95
F4.0
ssI162
(dp128
I17
F4.0
sI52
F5.0
sI5
F4.0
sI62
F5.0
ssI164
(dp129
I1
F3.5
sI10
F4.0
ssI165
(dp130
I70
F5.0
sI44
F4.0
sI47
F3.5
sI22
F3.5
sI62
F3.5
sI31
F3.5
ssI166
(dp131
I34
F4.0
ssI168
(dp132
I1
F5.0
sI50
F4.0
sI21
F4.0
sI39
F4.0
ssI169
(dp133
I1
F4.0
ssI171
(dp134
I16
F5.0
sI47
F4.0
ssI172
(dp135
I17
F4.0
sI50
F5.0
ssI173
(dp136
I32
F4.0
sI1
F4.0
sI100
F4.0
sI6
F5.0
sI40
F4.0
sI62
F4.0
ssI174
(dp137
I48
F4.5
ssI175
(dp138
I1
F4.0
sI95
F4.0
sI73
F4.0
sI47
F4.0
ssI177
(dp139
I32
F4.0
sI1
F5.0
sI2
F5.0
sI70
F4.0
sI6
F5.0
sI10
F4.0
sI50
F5.0
sI47
F5.0
sI18
F4.0
sI22
F4.0
sI89
F4.0
sI95
F4.0
ssI178
(dp140
I1
F4.0
ssI179
(dp141
I1
F5.0
ssI180
(dp142
I24
F4.0
ssI182
(dp143
I2
F5.0
sI3
F4.0
sI5
F4.0
sI7
F5.0
sI8
F5.0
sI11
F5.0
sI34
F5.0
sI60
F4.0
sI62
F5.0
ssI183
(dp144
I32
F5.0
sI34
F4.0
sI36
F4.0
sI50
F5.0
sI47
F5.0
ssI184
(dp145
I1
F5.0
ssI185
(dp146
I24
F4.0
sI1
F5.0
sI2
F4.0
sI50
F5.0
sI29
F5.0
ssI187
(dp147
I16
F4.0
sI1
F4.0
sI39
F4.5
ssI188
(dp148
I32
F4.0
sI2
F4.0
sI10
F4.0
sI34
F4.0
sI24
F4.0
sI60
F4.0
ssI190
(dp149
I43
F4.0
ssI192
(dp150
I2
F4.0
sI34
F5.0
sI62
F5.0
ssI193
(dp151
I16
F4.0
sI1
F4.0
ssI194
(dp152
I32
F4.0
ssI195
(dp153
I34
F4.0
sI6
F4.0
ssI196
(dp154
I5
F4.0
ssI198
(dp155
I36
F5.0
ssI199
(dp156
I32
F3.5
sI6
F4.5
sI44
F4.0
sI12
F4.0
sI47
F4.5
sI16
F4.0
sI50
F4.5
sI23
F3.5
sI25
F4.0
ssI200
(dp157
I32
F4.0
sI2
F3.5
ssI201
(dp158
I32
F5.0
sI1
F5.0
sI34
F4.0
sI6
F5.0
sI47
F5.0
sI50
F5.0
sI58
F4.0
ssI203
(dp159
I50
F5.0
sI23
F3.5
ssI204
(dp160
I16
F4.0
ssI205
(dp161
I1
F4.5
sI10
F3.5
sI50
F5.0
sI47
F4.5
ssI207
(dp162
I69
F5.0
ssI208
(dp163
I16
F4.0
ssI211
(dp164
I32
F5.0
sI43
F5.0
sI17
F4.0
sI82
F5.0
sI52
F5.0
sI29
F5.0
sI62
F5.0
ssI212
(dp165
I32
F3.5
sI48
F3.5
sI36
F4.0
sI10
F3.5
sI47
F3.5
sI16
F4.0
sI17
F3.5
sI50
F3.5
sI28
F4.0
sI95
F3.5
ssI213
(dp166
I89
F3.5
ssI214
(dp167
I50
F5.0
sI36
F4.0
sI47
F4.0
ssI216
(dp168
I48
F4.0
sI47
F5.0
ssI217
(dp169
I16
F4.0
sI3
F4.5
ssI219
(dp170
I1
F5.0
sI50
F4.0
sI11
F4.0
sI47
F4.0
sI39
F4.0
ssI220
(dp171
I16
F5.0
sI17
F5.0
sI34
F4.0
sI36
F4.0
sI62
F4.0
ssI223
(dp172
I32
F4.0
sI36
F4.0
sI5
F4.0
sI6
F4.0
sI41
F4.0
sI86
F5.0
sI62
F4.0
ssI224
(dp173
I1
F4.0
sI2
F4.0
sI6
F5.0
sI16
F5.0
sI17
F5.0
sI21
F4.0
sI25
F4.0
sI28
F5.0
sI29
F4.0
sI30
F4.0
sI32
F5.0
sI34
F5.0
sI35
F4.0
sI36
F5.0
sI43
F4.0
sI47
F4.0
sI50
F4.0
sI52
F4.0
sI55
F4.0
sI82
F4.0
sI85
F4.0
sI94
F4.0
sI100
F4.0
ssI225
(dp174
I47
F5.0
ssI231
(dp175
I50
F5.0
ssI232
(dp176
I32
F5.0
sI100
F5.0
sI11
F4.0
sI17
F5.0
sI50
F5.0
sI62
F5.0
sI95
F4.0
ssI233
(dp177
I17
F5.0
ssI235
(dp178
I62
F4.5
sI50
F5.0
sI11
F3.5
sI5
F4.5
sI6
F4.0
ssI236
(dp179
I32
F4.0
sI30
F4.5
sI7
F3.5
ssI239
(dp180
I11
F4.0
sI3
F4.0
sI69
F5.0
sI39
F5.0
ssI240
(dp181
I32
F4.5
sI1
F4.5
sI34
F4.5
sI36
F4.0
sI39
F4.5
sI47
F4.0
sI16
F3.5
sI17
F4.0
sI58
F4.0
ssI241
(dp182
I34
F4.0
sI36
F4.0
sI50
F4.0
ssI242
(dp183
I1
F5.0
sI34
F4.0
sI36
F5.0
sI6
F4.0
sI11
F5.0
sI47
F4.0
sI16
F5.0
sI50
F5.0
sI52
F4.0
sI21
F5.0
sI22
F4.0
sI25
F4.0
sI95
F4.0
sI100
F4.0
sI31
F4.0
ssI243
(dp184
I10
F3.5
sI34
F3.5
sI47
F4.0
ssI245
(dp185
I50
F4.0
sI36
F4.0
sI62
F5.0
ssI247
(dp186
I19
F4.0
sI1
F4.0
sI10
F4.0
sI11
F4.0
sI69
F4.0
ssI248
(dp187
I32
F4.0
ssI249
(dp188
I10
F4.0
sI11
F4.0
ssI252
(dp189
I32
F4.0
sI25
F5.0
sI95
F4.0
sI12
F5.0
sI7
F4.0
ssI253
(dp190
I1
F4.5
sI2
F4.0
sI34
F4.5
sI10
F4.0
sI62
F4.5
ssI254
(dp191
I72
F4.0
sI34
F5.0
sI50
F5.0
sI82
F5.0
sI29
F5.0
ssI256
(dp192
I25
F5.0
sI52
F4.0
sI62
F4.0
sI14
F4.0
ssI261
(dp193
I32
F4.0
sI50
F5.0
sI19
F5.0
ssI262
(dp194
I47
F5.0
ssI263
(dp195
I21
F3.5
sI62
F3.5
ssI264
(dp196
I39
F5.0
ssI265
(dp197
I25
F4.0
sI50
F5.0
sI36
F4.0
sI21
F4.0
sI41
F4.0
ssI266
(dp198
I50
F4.0
sI36
F5.0
sI62
F4.0
sI14
F4.0
sI39
F5.0
ssI267
(dp199
I50
F4.0
sI47
F4.5
ssI268
(dp200
I1
F5.0
sI2
F3.5
sI39
F3.5
sI11
F3.5
sI34
F4.5
sI47
F4.0
sI50
F3.5
ssI270
(dp201
I50
F4.0
sI47
F4.0
ssI271
(dp202
I16
F3.5
sI32
F4.0
sI50
F3.5
ssI272
(dp203
I1
F4.0
ssI273
(dp204
I1
F4.5
ssI275
(dp205
I16
F4.5
sI1
F5.0
sI50
F3.5
sI3
F4.0
sI39
F4.5
ssI278
(dp206
I80
F5.0
ssI279
(dp207
I50
F5.0
ssI280
(dp208
I17
F5.0
sI58
F4.0
sI28
F5.0
ssI282
(dp209
I32
F3.5
sI1
F4.0
ssI283
(dp210
I32
F4.0
sI50
F4.0
sI58
F4.0
sI7
F3.5
ssI284
(dp211
I32
F4.0
sI36
F4.0
sI5
F4.0
sI6
F5.0
sI79
F5.0
sI86
F4.0
sI100
F5.0
ssI285
(dp212
I32
F5.0
sI1
F4.0
sI69
F4.0
sI70
F4.0
sI10
F4.0
sI47
F5.0
sI50
F5.0
sI60
F4.0
ssI286
(dp213
I23
F4.0
ssI287
(dp214
I1
F5.0
sI2
F5.0
sI13
F4.5
ssI288
(dp215
I25
F4.0
sI2
F4.0
sI19
F5.0
sI47
F5.0
ssI290
(dp216
I10
F4.5
sI50
F4.5
sI47
F5.0
ssI291
(dp217
I47
F4.5
ssI292
(dp218
I32
F4.5
sI1
F4.0
sI2
F3.5
sI5
F4.0
sI70
F3.5
sI39
F4.5
sI10
F4.0
sI11
F4.5
sI47
F4.5
sI16
F4.5
sI50
F5.0
sI62
F4.0
sI95
F3.5
ssI293
(dp219
I1
F4.0
sI76
F3.5
ssI294
(dp220
I1
F4.0
sI5
F3.5
sI7
F5.0
sI73
F4.0
sI10
F3.5
sI39
F4.0
sI12
F4.0
sI48
F3.5
sI17
F4.0
sI92
F3.5
sI26
F3.5
sI28
F4.5
sI62
F3.5
ssI295
(dp221
I6
F4.5
sI39
F4.0
sI10
F4.5
sI47
F4.5
sI50
F4.5
sI95
F4.0
ssI298
(dp222
I2
F5.0
sI19
F4.0
sI6
F3.5
ssI299
(dp223
I16
F4.5
sI32
F5.0
sI29
F4.5
sI70
F4.5
sI47
F4.5
ssI300
(dp224
I32
F4.5
ssI303
(dp225
I25
F3.5
sI50
F3.5
sI62
F3.5
ssI304
(dp226
I25
F5.0
sI50
F4.5
sI14
F4.0
sI47
F5.0
ssI306
(dp227
I2
F4.0
sI39
F5.0
sI11
F4.0
sI34
F4.0
sI45
F4.0
sI16
F4.0
sI17
F4.0
sI50
F4.0
sI19
F4.0
sI52
F4.0
sI21
F4.0
sI25
F4.0
sI47
F4.0
ssI307
(dp228
I50
F5.0
sI47
F4.0
ssI308
(dp229
I17
F4.0
sI70
F4.0
sI39
F4.0
ssI309
(dp230
I50
F5.0
ssI311
(dp231
I34
F4.5
sI11
F5.0
sI21
F4.0
sI6
F4.0
sI45
F4.0
ssI312
(dp232
I1
F5.0
sI99
F5.0
sI36
F4.0
sI6
F5.0
sI39
F5.0
sI45
F5.0
sI50
F5.0
sI85
F4.0
sI25
F4.0
sI28
F5.0
ssI313
(dp233
I1
F4.0
sI10
F3.5
sI34
F4.0
sI5
F3.5
sI47
F4.0
ssI318
(dp234
I9
F4.0
sI95
F4.0
ssI319
(dp235
I11
F4.0
ssI321
(dp236
I50
F4.0
sI21
F5.0
ssI324
(dp237
I32
F3.5
sI1
F4.0
sI2
F4.0
sI73
F4.5
sI34
F5.0
sI62
F3.5
ssI325
(dp238
I31
F4.5
ssI326
(dp239
I60
F4.0
ssI327
(dp240
I32
F4.0
sI47
F3.5
ssI328
(dp241
I1
F4.0
sI34
F4.0
ssI329
(dp242
I1
F5.0
sI25
F5.0
sI6
F5.0
sI7
F4.0
ssI330
(dp243
I32
F4.0
sI41
F5.0
sI50
F4.0
sI58
F4.0
sI80
F5.0
ssI331
(dp244
I24
F4.0
ssI332
(dp245
I70
F5.0
ssI333
(dp246
I1
F4.0
ssI334
(dp247
I1
F5.0
ssI338
(dp248
I34
F4.0
sI36
F4.0
sI47
F4.0
sI17
F4.0
sI25
F4.0
sI62
F4.0
ssI339
(dp249
I47
F4.5
ssI340
(dp250
I6
F4.0
sI47
F5.0
ssI341
(dp251
I14
F4.0
sI31
F4.5
ssI342
(dp252
I25
F4.0
sI50
F5.0
sI36
F4.0
sI58
F5.0
ssI343
(dp253
I32
F4.0
sI1
F5.0
sI36
F4.0
sI6
F5.0
sI81
F4.0
sI25
F5.0
ssI344
(dp254
I1
F4.0
sI82
F4.0
sI47
F5.0
sI50
F5.0
sI52
F4.0
sI53
F5.0
ssI345
(dp255
I32
F5.0
sI1
F4.5
sI34
F4.0
sI45
F3.5
sI47
F4.5
sI50
F4.5
sI25
F4.0
sI62
F3.5
ssI348
(dp256
I32
F5.0
sI73
F4.0
ssI350
(dp257
I1
F4.0
sI50
F4.0
sI36
F5.0
sI69
F5.0
ssI351
(dp258
I94
F4.0
ssI352
(dp259
I32
F3.5
sI47
F4.0
ssI353
(dp260
I1
F3.5
sI62
F3.5
sI47
F3.5
ssI354
(dp261
I1
F5.0
sI11
F5.0
sI44
F4.0
ssI355
(dp262
I32
F4.0
sI10
F3.5
sI50
F3.5
sI6
F4.0
sI47
F5.0
ssI357
(dp263
I32
F5.0
sI1
F5.0
sI58
F5.0
sI19
F4.0
sI48
F4.0
ssI358
(dp264
I1
F5.0
sI34
F5.0
sI39
F5.0
sI7
F4.0
sI17
F5.0
sI50
F5.0
sI52
F4.0
sI21
F4.0
sI58
F5.0
ssI359
(dp265
I58
F4.5
ssI360
(dp266
I50
F5.0
sI47
F4.0
ssI361
(dp267
I66
F4.0
sI3
F4.0
sI41
F4.0
sI74
F4.0
sI76
F4.0
sI14
F4.0
sI17
F5.0
sI52
F4.0
sI88
F4.0
sI25
F4.0
ssI362
(dp268
I50
F5.0
sI70
F3.5
ssI363
(dp269
I32
F4.0
sI1
F5.0
sI34
F5.0
sI47
F5.0
sI48
F4.0
sI50
F4.0
sI29
F4.0
ssI366
(dp270
I24
F4.0
sI44
F3.5
ssI367
(dp271
I95
F4.0
ssI369
(dp272
I32
F4.0
sI47
F4.0
ssI370
(dp273
I32
F4.5
sI44
F4.0
ssI371
(dp274
I17
F4.5
sI47
F4.5
ssI373
(dp275
I34
F4.0
sI36
F4.0
sI39
F5.0
sI45
F4.0
sI16
F4.0
sI50
F4.0
sI25
F4.0
ssI375
(dp276
I10
F4.0
ssI379
(dp277
I32
F4.0
sI1
F3.5
sI47
F4.5
ssI380
(dp278
I32
F5.0
sI1
F4.0
sI34
F4.0
sI6
F4.0
sI47
F5.0
sI16
F4.0
sI50
F5.0
sI19
F4.0
sI21
F4.0
sI25
F4.0
ssI381
(dp279
I25
F5.0
sI36
F5.0
sI5
F4.0
ssI382
(dp280
I1
F3.5
sI34
F4.0
sI7
F5.0
sI11
F5.0
sI48
F3.5
sI17
F4.0
sI62
F3.5
ssI383
(dp281
I32
F5.0
sI1
F5.0
sI34
F5.0
sI47
F5.0
sI52
F4.0
sI62
F4.0
ssI384
(dp282
I10
F3.5
sI70
F4.0
sI47
F4.0
ssI385
(dp283
I36
F4.0
sI6
F5.0
sI39
F4.0
sI11
F4.0
sI45
F4.0
sI47
F5.0
sI16
F5.0
sI50
F5.0
sI21
F4.0
ssI386
(dp284
I16
F4.0
sI25
F4.0
sI50
F4.0
sI92
F4.0
sI32
F4.0
ssI387
(dp285
I11
F4.0
sI52
F4.0
sI21
F4.0
ssI388
(dp286
I32
F4.0
sI36
F4.0
sI6
F5.0
sI72
F5.0
sI14
F4.0
sI47
F5.0
sI50
F5.0
sI22
F4.0
sI25
F4.0
ssI389
(dp287
I2
F4.0
sI5
F4.0
sI10
F4.0
sI54
F4.0
sI74
F4.0
sI62
F4.0
sI95
F5.0
ssI390
(dp288
I11
F5.0
sI1
F4.0
sI3
F5.0
sI21
F5.0
sI17
F4.0
ssI391
(dp289
I17
F4.0
sI50
F5.0
sI35
F5.0
sI58
F5.0
sI46
F4.0
ssI394
(dp290
I32
F4.0
sI50
F4.5
sI47
F4.0
ssI396
(dp291
I1
F5.0
sI12
F4.0
sI93
F4.0
sI15
F4.0
sI17
F4.0
sI50
F4.0
sI29
F4.0
ssI399
(dp292
I25
F4.0
sI50
F4.0
ssI400
(dp293
I32
F4.0
sI34
F4.0
sI39
F4.0
sI47
F4.0
sI50
F5.0
sI21
F4.0
ssI401
(dp294
I1
F5.0
ssI402
(dp295
I11
F4.5
sI13
F4.5
ssI403
(dp296
I1
F4.0
ssI404
(dp297
I6
F4.0
ssI405
(dp298
I10
F3.5
sI85
F4.0
ssI406
(dp299
I1
F3.5
sI52
F4.5
ssI407
(dp300
I32
F4.0
sI1
F4.0
sI36
F4.0
sI41
F5.0
sI14
F4.0
sI50
F4.0
sI52
F5.0
sI73
F5.0
sI25
F4.0
sI58
F5.0
ssI408
(dp301
I32
F4.0
sI50
F5.0
sI39
F4.0
sI73
F5.0
sI45
F4.0
sI47
F5.0
sI17
F4.0
sI18
F5.0
sI21
F5.0
ssI409
(dp302
I1
F5.0
sI34
F5.0
sI35
F4.0
sI46
F4.0
sI47
F5.0
sI16
F4.0
sI50
F4.0
sI21
F5.0
sI25
F4.0
sI30
F5.0
sI85
F5.0
ssI410
(dp303
I32
F4.5
sI1
F5.0
ssI411
(dp304
I24
F5.0
ssI412
(dp305
I1
F4.0
sI50
F4.0
ssI413
(dp306
I25
F4.0
sI95
F4.0
sI62
F4.0
sI6
F5.0
sI7
F5.0
ssI414
(dp307
I28
F4.0
sI21
F4.0
ssI415
(dp308
I10
F4.0
sI50
F5.0
sI34
F4.0
ssI416
(dp309
I3
F4.0
sI7
F4.0
sI10
F4.0
sI11
F4.0
sI22
F4.0
sI62
F5.0
ssI417
(dp310
I1
F3.5
ssI418
(dp311
I1
F3.5
sI95
F3.5
sI47
F3.5
ssI419
(dp312
I1
F4.5
sI34
F4.0
sI50
F4.0
sI21
F3.5
ssI420
(dp313
I32
F4.0
ssI421
(dp314
I11
F5.0
ssI422
(dp315
I1
F5.0
sI34
F4.0
sI39
F4.0
sI36
F5.0
sI25
F5.0
ssI423
(dp316
I16
F3.5
sI32
F4.5
sI52
F3.5
ssI424
(dp317
I39
F3.5
ssI425
(dp318
I1
F4.5
sI50
F4.0
ssI426
(dp319
I47
F4.0
ssI428
(dp320
I16
F5.0
sI1
F5.0
sI50
F4.5
ssI430
(dp321
I32
F5.0
sI1
F4.0
sI34
F3.5
sI69
F4.0
sI6
F4.0
sI10
F3.5
sI47
F5.0
sI50
F5.0
sI21
F5.0
sI25
F4.5
sI29
F5.0
ssI431
(dp322
I1
F4.5
sI5
F4.5
sI41
F5.0
sI47
F5.0
sI17
F5.0
sI50
F5.0
ssI432
(dp323
I32
F5.0
sI1
F5.0
sI50
F5.0
sI47
F5.0
ssI433
(dp324
I32
F4.0
sI1
F4.5
sI6
F5.0
sI47
F5.0
sI16
F4.5
sI50
F3.5
ssI434
(dp325
I32
F4.0
sI1
F4.0
sI34
F4.0
sI36
F5.0
sI6
F4.0
sI78
F4.0
sI17
F5.0
sI50
F5.0
sI52
F4.0
sI85
F4.0
sI25
F5.0
sI58
F5.0
sI28
F4.0
ssI435
(dp326
I32
F5.0
ssI436
(dp327
I58
F4.0
ssI437
(dp328
I1
F4.0
ssI438
(dp329
I50
F5.0
ssI439
(dp330
I45
F4.0
sI39
F4.0
ssI440
(dp331
I1
F4.0
sI2
F4.0
sI50
F4.0
sI47
F4.0
ssI441
(dp332
I80
F4.5
sI58
F5.0
sI59
F5.0
sI94
F4.5
ssI442
(dp333
I1
F4.0
sI2
F4.0
sI3
F4.5
sI36
F4.5
sI34
F3.5
sI47
F4.5
sI16
F4.5
ssI447
(dp334
I25
F4.0
sI36
F4.0
sI62
F5.0
ssI449
(dp335
I32
F4.0
sI62
F4.0
sI47
F4.0
ssI450
(dp336
I50
F5.0
sI29
F4.5
sI47
F5.0
ssI451
(dp337
I52
F4.0
ssI452
(dp338
I1
F3.5
sI34
F4.0
sI43
F4.0
sI36
F5.0
sI6
F4.0
sI11
F4.0
sI14
F5.0
sI16
F4.0
sI17
F4.0
sI29
F4.0
sI94
F4.0
ssI453
(dp339
I44
F4.0
ssI454
(dp340
I50
F5.0
ssI455
(dp341
I1
F3.5
sI47
F4.5
ssI456
(dp342
I1
F3.5
ssI457
(dp343
I16
F3.5
sI97
F3.5
sI47
F4.5
ssI458
(dp344
I1
F3.5
sI10
F4.0
sI47
F4.0
ssI459
(dp345
I32
F4.0
sI1
F5.0
sI3
F4.0
sI36
F4.0
sI6
F4.0
sI14
F4.0
sI25
F5.0
sI95
F4.0
ssI460
(dp346
I32
F4.0
sI1
F4.5
sI4
F3.5
sI45
F4.0
sI50
F4.5
sI29
F4.0
sI95
F3.5
ssI461
(dp347
I1
F3.5
sI34
F3.5
sI6
F4.0
sI39
F4.5
sI47
F5.0
sI17
F4.5
sI50
F4.0
sI29
F3.5
ssI462
(dp348
I21
F3.5
ssI463
(dp349
I32
F4.0
sI7
F4.0
sI47
F4.0
sI17
F4.0
sI50
F5.0
sI52
F4.0
ssI464
(dp350
I10
F5.0
sI95
F5.0
sI62
F5.0
sI39
F5.0
ssI465
(dp351
I17
F5.0
sI39
F4.5
ssI466
(dp352
I1
F5.0
sI34
F4.0
sI50
F4.0
sI41
F4.0
sI39
F4.0
ssI467
(dp353
I43
F4.0
ssI468
(dp354
I1
F4.0
sI34
F3.5
sI6
F3.5
sI47
F3.5
sI16
F3.5
sI17
F3.5
ssI470
(dp355
I1
F3.5
sI29
F4.0
sI70
F3.5
ssI471
(dp356
I1
F3.5
sI10
F4.5
ssI472
(dp357
I1
F5.0
sI34
F5.0
sI36
F4.0
sI69
F4.5
sI39
F4.0
sI47
F4.0
sI16
F4.0
sI17
F4.0
sI50
F4.0
sI21
F4.0
sI25
F5.0
sI29
F4.0
sI94
F4.0
ssI473
(dp358
I2
F5.0
ssI475
(dp359
I16
F4.0
sI1
F4.5
sI47
F4.0
ssI476
(dp360
I16
F5.0
ssI478
(dp361
I47
F3.5
ssI479
(dp362
I2
F4.0
ssI480
(dp363
I1
F5.0
sI2
F5.0
sI50
F4.5
sI34
F3.5
sI47
F4.0
ssI481
(dp364
I16
F4.0
sI1
F4.0
sI58
F5.0
sI32
F4.0
ssI482
(dp365
I32
F4.0
ssI483
(dp366
I50
F4.0
ssI484
(dp367
I32
F5.0
sI3
F4.0
sI41
F4.0
sI76
F5.0
sI17
F5.0
sI62
F5.0
ssI485
(dp368
I31
F4.0
ssI486
(dp369
I1
F5.0
ssI487
(dp370
I32
F4.0
sI2
F4.0
sI39
F4.0
sI10
F4.0
sI11
F4.0
sI47
F4.0
sI17
F5.0
sI50
F5.0
sI22
F5.0
sI95
F5.0
sI74
F4.0
sI31
F5.0
ssI488
(dp371
I47
F4.0
ssI489
(dp372
I41
F4.0
ssI490
(dp373
I9
F4.0
sI58
F4.0
sI95
F4.0
sI6
F5.0
sI79
F4.0
ssI491
(dp374
I1
F5.0
sI34
F4.0
sI39
F4.0
ssI492
(dp375
I35
F4.0
sI77
F4.0
ssI493
(dp376
I34
F5.0
sI7
F4.0
sI11
F4.0
sI17
F4.0
sI58
F4.0
sI28
F4.0
ssI494
(dp377
I50
F5.0
ssI495
(dp378
I34
F5.0
sI47
F4.0
ssI496
(dp379
I2
F4.0
sI6
F5.0
sI71
F5.0
sI95
F4.0
sI11
F4.0
sI79
F4.0
sI20
F4.0
sI22
F5.0
sI23
F4.0
sI89
F4.0
sI27
F4.0
sI61
F4.0
sI62
F5.0
sI31
F4.0
ssI499
(dp380
I50
F5.0
ssI500
(dp381
I62
F3.5
ssI501
(dp382
I1
F5.0
sI50
F3.5
sI36
F4.5
sI47
F5.0
ssI502
(dp383
I32
F5.0
sI1
F4.0
sI36
F5.0
sI78
F4.0
sI50
F5.0
sI52
F4.0
sI25
F5.0
ssI503
(dp384
I1
F4.0
sI50
F4.0
ssI506
(dp385
I1
F4.0
ssI507
(dp386
I32
F4.0
sI18
F4.0
sI36
F5.0
sI62
F4.0
ssI508
(dp387
I41
F5.0
sI34
F5.0
sI50
F5.0
sI21
F5.0
sI47
F5.0
ssI509
(dp388
I32
F4.0
sI68
F4.0
sI36
F4.5
sI69
F3.5
sI41
F4.5
sI45
F3.5
sI47
F4.0
sI16
F4.0
sI17
F4.0
sI50
F5.0
sI52
F4.0
sI21
F4.0
sI25
F4.0
sI28
F4.0
sI94
F4.5
ssI510
(dp389
I84
F4.0
sI17
F4.0
sI58
F4.0
sI36
F4.0
sI21
F4.0
ssI511
(dp390
I100
F5.0
sI36
F5.0
sI11
F4.0
sI16
F5.0
sI50
F5.0
sI21
F5.0
sI25
F4.0
sI58
F5.0
sI94
F4.0
sI31
F4.0
ssI514
(dp391
I32
F4.0
sI1
F4.0
sI34
F4.0
sI36
F4.0
sI45
F4.0
sI78
F4.0
sI47
F4.0
sI50
F5.0
sI52
F4.0
sI25
F5.0
sI92
F4.0
sI29
F5.0
ssI516
(dp392
I32
F4.0
sI6
F4.0
sI7
F4.0
sI10
F4.0
sI47
F4.0
sI21
F5.0
sI22
F5.0
sI25
F5.0
sI95
F4.0
sI30
F4.0
sI31
F4.0
ssI517
(dp393
I2
F5.0
sI39
F4.0
sI11
F5.0
sI47
F5.0
sI17
F5.0
sI95
F4.0
ssI518
(dp394
I1
F5.0
sI2
F4.0
sI34
F5.0
sI54
F4.0
sI39
F4.0
sI9
F4.0
sI11
F5.0
sI13
F5.0
sI47
F5.0
sI17
F5.0
sI22
F4.0
sI95
F4.0
ssI519
(dp395
I50
F4.0
ssI520
(dp396
I32
F4.5
sI50
F5.0
sI47
F5.0
ssI521
(dp397
I50
F4.5
ssI522
(dp398
I19
F3.5
sI47
F4.0
ssI523
(dp399
I48
F4.0
sI50
F5.0
ssI524
(dp400
I32
F4.0
ssI525
(dp401
I21
F4.0
sI6
F4.0
sI31
F4.0
ssI526
(dp402
I1
F4.0
ssI527
(dp403
I32
F3.5
sI50
F3.5
sI94
F4.5
sI62
F3.5
sI47
F3.5
ssI528
(dp404
I50
F4.0
sI52
F3.5
ssI529
(dp405
I32
F4.0
sI1
F4.0
sI34
F5.0
sI36
F4.5
sI17
F4.5
sI52
F4.0
sI55
F4.0
sI25
F4.0
sI58
F4.0
sI28
F4.0
sI62
F4.0
ssI530
(dp406
I1
F5.0
sI36
F5.0
sI14
F4.0
sI48
F4.0
sI17
F4.0
sI62
F4.0
sI95
F5.0
ssI531
(dp407
I2
F4.0
ssI532
(dp408
I19
F3.5
ssI533
(dp409
I32
F4.0
sI36
F4.0
ssI534
(dp410
I32
F4.0
sI1
F5.0
sI2
F4.0
sI36
F4.0
sI86
F5.0
sI6
F5.0
sI47
F5.0
sI16
F4.0
sI22
F4.0
sI23
F4.0
sI89
F4.0
sI61
F4.0
sI95
F4.0
ssI536
(dp411
I34
F5.0
sI39
F5.0
sI47
F4.0
sI50
F5.0
sI22
F5.0
sI23
F4.0
sI57
F5.0
sI60
F4.0
ssI537
(dp412
I32
F4.0
sI1
F5.0
sI36
F4.0
sI7
F5.0
sI41
F5.0
sI43
F4.0
sI17
F5.0
sI50
F5.0
sI21
F5.0
sI58
F5.0
sI29
F5.0
sI62
F4.0
ssI538
(dp413
I1
F5.0
ssI539
(dp414
I17
F4.0
sI50
F4.0
ssI542
(dp415
I1
F4.5
ssI543
(dp416
I1
F5.0
sI3
F5.0
sI7
F5.0
ssI544
(dp417
I16
F4.0
sI25
F5.0
sI47
F5.0
sI6
F4.5
sI32
F4.5
ssI545
(dp418
I34
F4.0
sI36
F5.0
sI47
F5.0
ssI546
(dp419
I32
F5.0
ssI547
(dp420
I32
F4.0
sI1
F3.5
sI34
F4.0
sI36
F4.0
sI45
F4.0
sI14
F3.5
sI47
F4.0
sI16
F4.0
sI17
F5.0
sI50
F4.0
sI21
F4.0
sI57
F4.0
sI25
F4.5
sI94
F3.5
ssI548
(dp421
I1
F4.0
sI3
F4.0
sI69
F4.0
sI10
F4.0
sI50
F4.0
sI52
F4.0
sI58
F5.0
ssI549
(dp422
I50
F4.5
ssI550
(dp423
I32
F4.0
sI34
F4.0
sI41
F5.0
sI10
F4.0
sI11
F4.0
sI16
F5.0
ssI551
(dp424
I7
F4.0
ssI552
(dp425
I97
F4.0
ssI553
(dp426
I1
F4.0
ssI554
(dp427
I17
F5.0
ssI555
(dp428
I34
F4.0
sI50
F4.0
ssI559
(dp429
I95
F4.0
sI1
F4.0
sI34
F4.0
sI79
F4.0
sI17
F4.0
ssI560
(dp430
I1
F4.5
sI10
F4.0
sI19
F3.5
sI34
F3.5
ssI561
(dp431
I32
F3.5
sI10
F3.5
sI62
F4.0
ssI562
(dp432
I32
F4.0
sI1
F4.5
sI34
F4.0
sI36
F4.0
sI5
F3.5
sI6
F4.0
sI39
F3.5
sI11
F4.0
sI47
F4.5
sI16
F3.5
sI50
F5.0
sI21
F4.0
sI95
F3.5
ssI564
(dp433
I1
F4.0
sI2
F4.0
sI13
F4.0
sI16
F4.0
sI21
F4.0
sI22
F5.0
sI25
F5.0
sI30
F5.0
sI32
F4.0
sI36
F5.0
sI39
F5.0
sI43
F4.0
sI45
F5.0
sI46
F5.0
sI47
F4.0
sI49
F5.0
sI50
F5.0
sI52
F5.0
sI55
F4.0
sI57
F4.0
sI68
F4.0
sI76
F4.0
sI77
F4.0
sI78
F4.0
sI85
F4.0
sI86
F4.0
sI92
F5.0
sI94
F4.0
sI99
F4.0
ssI568
(dp434
I10
F4.0
sI47
F5.0
ssI569
(dp435
I11
F5.0
sI39
F4.0
ssI570
(dp436
I36
F4.0
ssI571
(dp437
I32
F4.5
sI88
F3.5
sI18
F5.0
ssI572
(dp438
I50
F4.0
ssI573
(dp439
I80
F4.0
sI36
F5.0
ssI574
(dp440
I32
F4.5
sI1
F4.0
sI3
F3.5
sI70
F4.0
sI6
F5.0
sI47
F4.5
sI16
F4.5
sI50
F5.0
sI25
F4.5
ssI575
(dp441
I17
F5.0
sI2
F4.0
sI28
F5.0
sI34
F5.0
sI7
F4.0
ssI577
(dp442
I32
F4.5
sI1
F5.0
sI34
F5.0
sI6
F4.0
sI10
F3.5
sI47
F4.0
sI48
F3.5
sI17
F5.0
sI29
F5.0
sI95
F3.5
ssI580
(dp443
I32
F4.5
sI1
F4.0
sI2
F3.5
sI69
F3.5
sI6
F3.5
sI39
F4.0
sI47
F4.0
sI16
F3.5
sI50
F4.0
sI85
F4.0
sI29
F4.0
ssI582
(dp444
I48
F4.0
sI62
F3.5
ssI584
(dp445
I1
F5.0
sI60
F3.5
sI47
F3.5
ssI585
(dp446
I1
F4.0
sI34
F4.0
sI39
F4.0
sI45
F4.0
sI50
F5.0
sI21
F4.0
ssI586
(dp447
I1
F4.0
ssI587
(dp448
I34
F3.5
sI45
F4.0
sI47
F3.5
sI50
F4.5
sI52
F4.0
sI25
F4.0
sI58
F4.5
ssI588
(dp449
I32
F4.0
sI6
F4.0
sI47
F5.0
sI50
F5.0
sI21
F4.0
sI25
F4.0
ssI589
(dp450
I10
F4.0
sI95
F4.0
sI47
F5.0
ssI590
(dp451
I25
F5.0
sI34
F4.0
sI50
F5.0
sI6
F4.0
sI47
F4.0
ssI592
(dp452
I10
F4.0
ssI593
(dp453
I32
F5.0
sI25
F5.0
sI95
F4.0
sI20
F4.0
sI47
F4.0
ssI594
(dp454
I1
F4.0
sI21
F5.0
ssI595
(dp455
I48
F4.0
sI1
F5.0
sI13
F5.0
sI17
F4.0
ssI596
(dp456
I32
F5.0
sI1
F3.5
sI36
F3.5
sI69
F4.0
sI6
F4.0
sI10
F3.5
sI50
F4.5
sI47
F4.0
sI16
F5.0
sI18
F3.5
sI23
F3.5
sI25
F4.0
sI70
F4.0
ssI597
(dp457
I32
F4.0
sI1
F5.0
sI34
F5.0
sI11
F4.0
sI39
F5.0
ssI598
(dp458
I88
F4.0
sI1
F4.5
sI50
F5.0
sI11
F4.0
sI69
F4.0
ssI599
(dp459
I39
F5.0
ssI602
(dp460
I97
F5.0
sI2
F4.0
sI36
F5.0
sI34
F4.0
sI45
F4.0
sI50
F5.0
sI85
F5.0
sI25
F5.0
sI47
F4.0
sI29
F5.0
ssI603
(dp461
I32
F5.0
sI1
F4.0
sI2
F4.0
sI62
F5.0
sI6
F4.0
ssI604
(dp462
I32
F3.5
ssI605
(dp463
I34
F5.0
sI19
F4.0
sI39
F4.0
ssI607
(dp464
I32
F3.5
sI1
F4.5
sI3
F3.5
sI69
F4.0
sI7
F3.5
sI10
F3.5
sI50
F4.5
sI47
F4.0
sI16
F3.5
sI18
F4.0
sI21
F3.5
sI62
F3.5
sI31
F3.5
ssI608
(dp465
I32
F4.0
sI1
F4.0
sI34
F4.0
sI36
F4.0
sI6
F5.0
sI47
F5.0
sI16
F4.0
sI50
F5.0
sI25
F4.0
sI30
F4.0
ssI609
(dp466
I81
F5.0
ssI613
(dp467
I50
F5.0
ssI614
(dp468
I52
F4.0
sI28
F4.0
ssI615
(dp469
I1
F4.0
sI60
F3.5
sI6
F3.5
sI47
F4.5
ssI616
(dp470
I1
F4.0
sI18
F4.0
sI36
F4.0
sI25
F4.0
ssI618
(dp471
I50
F5.0
ssI619
(dp472
I50
F5.0
sI47
F4.0
ssI620
(dp473
I50
F4.0
ssI621
(dp474
I5
F4.5
ssI623
(dp475
I1
F4.5
sI34
F4.0
ssI624
(dp476
I16
F5.0
sI1
F5.0
sI10
F4.0
sI50
F4.0
sI47
F4.0
ssI627
(dp477
I50
F4.0
sI36
F4.0
sI6
F4.0
sI47
F4.0
ssI628
(dp478
I32
F3.5
sI58
F3.5
sI29
F4.0
ssI630
(dp479
I1
F4.0
ssI631
(dp480
I47
F5.0
ssI632
(dp481
I88
F4.5
ssI633
(dp482
I21
F4.0
ssI636
(dp483
I32
F4.0
sI68
F4.0
sI36
F4.0
sI85
F5.0
sI25
F4.0
sI29
F4.0
sI30
F4.0
ssI637
(dp484
I24
F3.5
sI32
F5.0
sI50
F5.0
ssI639
(dp485
I11
F4.0
sI39
F4.0
ssI640
(dp486
I17
F4.0
sI74
F4.0
sI3
F4.0
sI36
F5.0
sI62
F5.0
ssI641
(dp487
I32
F4.0
sI1
F4.0
sI2
F4.0
sI36
F4.0
sI5
F4.0
sI6
F4.0
sI7
F4.0
sI74
F4.0
sI11
F4.0
sI34
F4.0
sI46
F4.0
sI52
F4.0
sI94
F4.0
sI22
F4.0
sI39
F5.0
sI27
F4.0
sI61
F4.0
sI62
F4.0
sI31
F4.0
ssI643
(dp488
I50
F5.0
ssI646
(dp489
I48
F5.0
sI1
F5.0
sI3
F5.0
ssI647
(dp490
I1
F4.0
sI34
F5.0
sI6
F4.0
sI47
F5.0
sI16
F4.0
sI50
F5.0
ssI648
(dp491
I97
F4.5
sI6
F4.0
ssI649
(dp492
I32
F4.0
sI1
F4.0
sI39
F4.0
sI10
F5.0
sI44
F4.0
sI50
F4.0
sI58
F4.0
ssI650
(dp493
I36
F5.0
sI10
F4.0
sI11
F5.0
sI17
F4.0
sI86
F5.0
sI89
F4.0
sI62
F5.0
sI95
F4.0
ssI652
(dp494
I24
F5.0
sI94
F4.0
sI22
F4.0
sI71
F4.0
ssI653
(dp495
I1
F4.0
sI34
F4.0
sI39
F5.0
ssI654
(dp496
I32
F5.0
sI1
F5.0
sI34
F4.5
sI36
F4.5
sI5
F4.0
sI70
F3.5
sI10
F4.0
sI11
F4.5
sI47
F4.5
sI17
F4.5
sI50
F5.0
sI19
F4.5
sI94
F4.0
sI24
F4.5
sI60
F3.5
sI62
F4.5
ssI655
(dp497
I32
F4.0
sI2
F4.0
sI50
F5.0
sI18
F4.0
ssI656
(dp498
I24
F4.0
ssI658
(dp499
I34
F4.0
sI58
F5.0
sI62
F5.0
ssI659
(dp500
I32
F4.0
sI36
F4.0
sI14
F4.0
sI47
F4.0
sI16
F5.0
sI17
F4.0
sI50
F4.0
sI22
F4.0
sI25
F5.0
sI92
F4.0
sI29
F4.0
ssI660
(dp501
I32
F4.0
ssI662
(dp502
I2
F5.0
sI34
F4.0
ssI663
(dp503
I1
F4.0
ssI664
(dp504
I32
F5.0
sI1
F3.5
sI70
F3.5
sI6
F4.0
sI47
F4.5
sI16
F4.0
sI50
F4.5
sI29
F4.0
ssI665
(dp505
I16
F4.0
sI32
F4.0
sI48
F4.0
ssI666
(dp506
I6
F5.0
ssI667
(dp507
I32
F5.0
sI41
F5.0
sI58
F4.0
sI36
F4.0
sI6
F4.0
ssI670
(dp508
I1
F4.0
sI34
F4.0
sI36
F4.0
sI47
F5.0
sI50
F5.0
sI25
F5.0
ssI671
(dp509
I1
F5.0
sI50
F4.5
sI36
F4.0
ss.