ccollections
defaultdict
p0
(g0
tp1
Rp2
I1
g0
(tRp3
I2
F0.22835046419238056
sI3
F0.21182963643408087
sI4
F0.07412493166611012
sI5
F0.13910505024041692
sI6
F0.2949726792932347
sI7
F0.13617619485048055
sI8
F0.07412493166611012
sI9
F0.033149677206589796
sI10
F0.22065758941558036
sI11
F0.22400053315892832
sI12
F0.09944903161976938
sI13
F0.13259870882635919
sI14
F0.11118739749916517
sI15
F0.07412493166611012
sI16
F0.3057497440438928
sI17
F0.2447607691223871
sI18
F0.10279278535093246
sI19
F0.13604340477028715
sI21
F0.2198900824313101
sI22
F0.11118739749916517
sI23
F0.09376144618769908
sI24
F0.04111711414037299
sI25
F0.2587842008729214
sI26
F0.07412493166611012
sI27
F0.052414241836095915
sI28
F0.0956948752938691
sI29
F0.23963815331290364
sI30
F0.10482848367219183
sI31
F0.07191174652966195
sI32
F0.3484821153303148
sI34
F0.4106731062917897
sI35
F0.060522753266880246
sI36
F0.29188972321078077
sI39
F0.3081824980742892
sI40
F0.07412493166611012
sI41
F0.08988968316207743
sI43
F0.10482848367219183
sI44
F0.05603318146805258
sI45
F0.13617619485048055
sI46
F0.11118739749916517
sI47
F0.3889961531252308
sI48
F0.1853123291652753
sI49
F0.07412493166611012
sI50
F0.39891305975152647
sI52
F0.21610945537689158
sI53
F0.07412493166611012
sI54
F0.052414241836095915
sI55
F0.11118739749916517
sI57
F0.07412493166611012
sI58
F0.16288220358559113
sI60
F0.09883324222148017
sI61
F0.11118739749916517
sI62
F0.19636174091399627
sI63
F0.08559209850218258
sI68
F0.033149677206589796
sI69
F0.22237479499833035
sI70
F0.17383837384127884
sI73
F0.09376144618769908
sI74
F0.030261376633440123
sI76
F0.12104550653376049
sI77
F0.052414241836095915
sI78
F0.13259870882635919
sI79
F0.08404977220207886
sI81
F0.09078412990032037
sI82
F0.09078412990032037
sI85
F0.16446845656149195
sI86
F0.09376144618769908
sI88
F0.033149677206589796
sI89
F0.07862136275414387
sI92
F0.12104550653376049
sI93
F0.07412493166611012
sI94
F0.14390989949130545
sI95
F0.20047040441303524
sI99
F0.10482848367219183
sI100
F0.12354155277685021
ssI2
g0
(tRp4
I1
F0.22835046419238056
sI3
F0.08574929257125442
sI5
F0.17518714874213515
sI6
F0.14750134868747913
sI7
F0.14291548761875736
sI8
F0.21004201260420147
sI9
F0.1252448582170299
sI10
F0.20842004228756245
sI11
F0.2115775882310256
sI13
F0.18786728732554486
sI16
F0.1650245904961124
sI17
F0.12448502395517627
sI18
F0.07767356373806174
sI19
F0.1606231415508089
sI20
F0.16169041669088866
sI21
F0.1321696096086382
sI22
F0.2450490147049017
sI23
F0.08856148855400953
sI24
F0.1165103456070926
sI25
F0.10114434748483472
sI27
F0.19802950859533489
sI28
F0.07231015260621873
sI29
F0.15089863644835705
sI30
F0.09901475429766744
sI31
F0.13584712216226488
sI32
F0.1963383631246505
sI34
F0.24423169902168218
sI35
F0.05716619504750295
sI36
F0.157543818044759
sI39
F0.22934432041081737
sI43
F0.09901475429766744
sI45
F0.14291548761875736
sI46
F0.14002800840280097
sI47
F0.2412924819194898
sI48
F0.07001400420140048
sI49
F0.14002800840280097
sI50
F0.1651680278030668
sI52
F0.09605842128561483
sI54
F0.19802950859533489
sI55
F0.14002800840280097
sI57
F0.07001400420140048
sI60
F0.09335200560186732
sI61
F0.21004201260420147
sI62
F0.20401879082737434
sI65
F0.09901475429766744
sI68
F0.06262242910851495
sI69
F0.03500700210070024
sI70
F0.059708143402653215
sI71
F0.09901475429766744
sI73
F0.04428074427700476
sI74
F0.2286647801900118
sI76
F0.05716619504750295
sI77
F0.09901475429766744
sI78
F0.06262242910851495
sI79
F0.15877683720748895
sI82
F0.05716619504750295
sI85
F0.15534712747612348
sI86
F0.1328422328310143
sI89
F0.2475368857441686
sI92
F0.05716619504750295
sI94
F0.1165103456070926
sI95
F0.2130214807490179
sI97
F0.05716619504750295
sI99
F0.09901475429766744
sI100
F0.04667600280093366
ssI3
g0
(tRp5
I1
F0.21182963643408087
sI2
F0.08574929257125442
sI5
F0.1276884796138123
sI6
F0.07167277238512448
sI7
F0.20833333333333334
sI8
F0.10206207261596577
sI9
F0.09128709291752768
sI10
F0.10127393670836667
sI11
F0.14019303852301107
sI14
F0.10206207261596577
sI16
F0.14433756729740643
sI17
F0.12961896184130317
sI18
F0.11322770341445956
sI19
F0.0936585811581694
sI21
F0.055048188256318034
sI22
F0.051031036307982884
sI23
F0.06454972243679027
sI25
F0.12286829679574762
sI26
F0.10206207261596577
sI31
F0.09901475429766744
sI32
F0.10101525445522108
sI34
F0.04188539082916955
sI36
F0.09186304243492507
sI39
F0.10286889997472794
sI41
F0.14852213144650114
sI45
F0.08333333333333333
sI47
F0.04796471095433095
sI48
F0.051031036307982884
sI50
F0.0601929265428846
sI52
F0.14002800840280097
sI58
F0.06900655593423542
sI60
F0.06804138174397717
sI61
F0.10206207261596577
sI62
F0.1892583246525563
sI63
F0.11785113019775793
sI66
F0.20412414523193154
sI69
F0.15309310892394865
sI70
F0.04351941398892446
sI74
F0.16666666666666666
sI76
F0.25
sI79
F0.07715167498104596
sI81
F0.08333333333333333
sI82
F0.08333333333333333
sI85
F0.11322770341445956
sI86
F0.06454972243679027
sI88
F0.09128709291752768
sI92
F0.08333333333333333
sI95
F0.10350983390135314
sI100
F0.06804138174397717
ssI4
g0
(tRp6
I32
F0.08247860988423225
sI1
F0.07412493166611012
sI45
F0.20412414523193154
sI50
F0.07372097807744857
sI29
F0.1796053020267749
sI95
F0.1690308509457033
ssI5
g0
(tRp7
I1
F0.13910505024041692
sI2
F0.17518714874213515
sI3
F0.1276884796138123
sI6
F0.19523812982535202
sI7
F0.17025130615174972
sI8
F0.20851441405707477
sI9
F0.18650096164806276
sI10
F0.1551781800335615
sI11
F0.20049160254417167
sI12
F0.09325048082403138
sI16
F0.12286829679574762
sI17
F0.13240678533309402
sI19
F0.14350946197048195
sI20
F0.1203858530857692
sI21
F0.08434823356733
sI22
F0.05212860351426869
sI23
F0.0659380473395787
sI24
F0.11566298639324804
sI25
F0.07530655685082074
sI26
F0.20851441405707477
sI27
F0.14744195615489714
sI28
F0.05383819020581655
sI31
F0.10114434748483472
sI32
F0.13758383209802194
sI34
F0.12835876495216744
sI36
F0.18767763553943526
sI39
F0.15762208124782015
sI41
F0.10114434748483472
sI45
F0.04256282653793743
sI46
F0.10425720702853739
sI47
F0.09799265626999179
sI48
F0.10425720702853739
sI50
F0.09223131928520185
sI52
F0.10727978097782273
sI54
F0.14744195615489714
sI58
F0.035245368842512066
sI60
F0.13900960937138318
sI61
F0.20851441405707477
sI62
F0.27618408833305375
sI63
F0.1203858530857692
sI65
F0.14744195615489714
sI70
F0.08891084489487741
sI73
F0.0659380473395787
sI74
F0.2553769592276246
sI76
F0.08512565307587486
sI79
F0.23643312187173018
sI81
F0.08512565307587486
sI82
F0.17025130615174972
sI86
F0.1978141420187361
sI89
F0.07372097807744857
sI92
F0.17025130615174972
sI94
F0.11566298639324804
sI95
F0.17622684421256035
sI100
F0.13900960937138318
ssI6
g0
(tRp8
I1
F0.2949726792932347
sI2
F0.14750134868747913
sI3
F0.07167277238512448
sI5
F0.19523812982535202
sI7
F0.14334554477024897
sI8
F0.11704114719613057
sI9
F0.15702717677706413
sI10
F0.1306545086563968
sI11
F0.20899889379280623
sI12
F0.052342392259021375
sI14
F0.11704114719613057
sI16
F0.37242264987106555
sI17
F0.13377816502340914
sI18
F0.09738412097417933
sI19
F0.10740432270821094
sI20
F0.13514747567989718
sI21
F0.2682910261633824
sI22
F0.23408229439226114
sI23
F0.2220699630592816
sI24
F0.09738412097417933
sI25
F0.3522524587835815
sI26
F0.058520573598065284
sI27
F0.1655211777204736
sI28
F0.12087957704309989
sI29
F0.18919089532549122
sI30
F0.12414088329035519
sI31
F0.19870653453128084
sI32
F0.38613564479970625
sI34
F0.26417970331817237
sI35
F0.04778184825674966
sI36
F0.2896994729659103
sI39
F0.1622037835747299
sI40
F0.11704114719613057
sI41
F0.08515994337054894
sI43
F0.12414088329035519
sI44
F0.04423739552038088
sI45
F0.11945462064187415
sI46
F0.058520573598065284
sI47
F0.3575274363177971
sI48
F0.029260286799032642
sI50
F0.30199357463118803
sI52
F0.10036195573796254
sI55
F0.058520573598065284
sI58
F0.09891782353111633
sI60
F0.07802743146408704
sI61
F0.17556172079419585
sI62
F0.1705272652262163
sI63
F0.13514747567989718
sI65
F0.1655211777204736
sI69
F0.1463014339951632
sI70
F0.2495325642529748
sI71
F0.0827605888602368
sI72
F0.06757373783994859
sI73
F0.037011660509880265
sI74
F0.09556369651349932
sI76
F0.04778184825674966
sI78
F0.052342392259021375
sI79
F0.17694958208152353
sI81
F0.14334554477024897
sI82
F0.09556369651349932
sI85
F0.16230686829029886
sI86
F0.2220699630592816
sI88
F0.052342392259021375
sI89
F0.206901472150592
sI94
F0.09738412097417933
sI95
F0.2769699058871257
sI97
F0.04778184825674966
sI99
F0.0827605888602368
sI100
F0.23408229439226114
ssI7
g0
(tRp9
I1
F0.13617619485048055
sI2
F0.14291548761875736
sI3
F0.20833333333333334
sI5
F0.17025130615174972
sI6
F0.14334554477024897
sI8
F0.20412414523193154
sI9
F0.09128709291752768
sI10
F0.15191090506255
sI11
F0.22430886163681774
sI12
F0.18257418583505536
sI16
F0.07216878364870322
sI17
F0.18146654657782443
sI18
F0.05661385170722978
sI19
F0.0468292905790847
sI21
F0.1651445647689541
sI22
F0.15309310892394865
sI23
F0.06454972243679027
sI25
F0.14744195615489714
sI26
F0.10206207261596577
sI27
F0.14433756729740646
sI28
F0.15811388300841897
sI29
F0.036661778755338326
sI30
F0.14433756729740646
sI31
F0.2475368857441686
sI32
F0.16835875742536846
sI34
F0.12565617248750865
sI36
F0.06889728182619381
sI39
F0.1543033499620919
sI41
F0.04950737714883372
sI43
F0.07216878364870323
sI45
F0.125
sI46
F0.10206207261596577
sI47
F0.0959294219086619
sI48
F0.15309310892394865
sI50
F0.0902893898143269
sI52
F0.10502100630210073
sI58
F0.13801311186847084
sI60
F0.06804138174397717
sI61
F0.10206207261596577
sI62
F0.24333213169614382
sI69
F0.051031036307982884
sI73
F0.12909944487358055
sI74
F0.08333333333333333
sI79
F0.07715167498104596
sI86
F0.06454972243679027
sI89
F0.07216878364870323
sI92
F0.08333333333333333
sI94
F0.05661385170722978
sI95
F0.13801311186847084
ssI8
g0
(tRp10
I1
F0.07412493166611012
sI2
F0.21004201260420147
sI3
F0.10206207261596577
sI5
F0.20851441405707477
sI6
F0.11704114719613057
sI7
F0.20412414523193154
sI9
F0.22360679774997896
sI11
F0.13736056394868904
sI14
F0.125
sI16
F0.11785113019775793
sI20
F0.2886751345948129
sI21
F0.13483997249264842
sI23
F0.15811388300841897
sI24
F0.1386750490563073
sI25
F0.1203858530857692
sI34
F0.10259783520851541
sI36
F0.0562543950463012
sI39
F0.0629940788348712
sI45
F0.10206207261596577
sI47
F0.07832604499879574
sI48
F0.125
sI50
F0.036860489038724284
sI52
F0.08574929257125441
sI60
F0.16666666666666666
sI62
F0.06622661785325219
sI65
F0.35355339059327373
sI70
F0.10660035817780521
sI74
F0.20412414523193154
sI79
F0.3779644730092272
sI86
F0.15811388300841897
sI89
F0.35355339059327373
sI100
F0.16666666666666666
ssI9
g0
(tRp11
I1
F0.033149677206589796
sI2
F0.1252448582170299
sI3
F0.09128709291752768
sI5
F0.18650096164806276
sI6
F0.15702717677706413
sI7
F0.09128709291752768
sI8
F0.22360679774997896
sI10
F0.05547001962252291
sI11
F0.12285902336679023
sI13
F0.2
sI16
F0.10540925533894598
sI17
F0.05679618342470648
sI19
F0.10259783520851541
sI20
F0.2581988897471611
sI21
F0.060302268915552716
sI22
F0.11180339887498948
sI23
F0.1414213562373095
sI24
F0.12403473458920847
sI25
F0.05383819020581655
sI31
F0.10846522890932808
sI34
F0.04588314677411235
sI36
F0.05031546054266276
sI39
F0.1126872339638022
sI45
F0.09128709291752768
sI47
F0.035028472205202936
sI54
F0.31622776601683794
sI58
F0.07559289460184544
sI65
F0.31622776601683794
sI74
F0.18257418583505536
sI79
F0.3380617018914066
sI89
F0.15811388300841897
sI95
F0.30237157840738177
ssI10
g0
(tRp12
I1
F0.22065758941558036
sI2
F0.20842004228756245
sI3
F0.10127393670836667
sI5
F0.1551781800335615
sI6
F0.1306545086563968
sI7
F0.15191090506255
sI9
F0.05547001962252291
sI11
F0.20444977310879564
sI12
F0.05547001962252291
sI16
F0.17541160386140583
sI17
F0.14177184340737956
sI18
F0.1032031374230672
sI19
F0.14227759830611805
sI21
F0.1337987216011345
sI22
F0.15504341823651058
sI23
F0.07844645405527362
sI24
F0.06880209161537815
sI25
F0.08959216401473294
sI26
F0.062017367294604234
sI28
F0.06405126152203486
sI29
F0.08910918387082259
sI30
F0.043852900965351466
sI31
F0.1504142093990467
sI32
F0.26598552464321795
sI34
F0.1654340383737022
sI36
F0.09768498542662232
sI39
F0.18752289237539815
sI41
F0.030082841879809342
sI44
F0.04688072309384954
sI45
F0.025318484177091666
sI47
F0.3303151068968329
sI48
F0.09302605094190634
sI50
F0.24688697263631607
sI52
F0.0425435629811517
sI54
F0.08770580193070293
sI58
F0.04193139346887673
sI60
F0.12403473458920847
sI62
F0.18071682129971953
sI69
F0.1860521018838127
sI70
F0.18511005987178078
sI73
F0.03922322702763681
sI74
F0.10127393670836667
sI85
F0.034401045807689073
sI86
F0.03922322702763681
sI89
F0.08770580193070293
sI92
F0.05063696835418333
sI94
F0.034401045807689073
sI95
F0.27255405754769874
ssI11
g0
(tRp13
I1
F0.22400053315892832
sI2
F0.2115775882310256
sI3
F0.14019303852301107
sI5
F0.20049160254417167
sI6
F0.20899889379280623
sI7
F0.22430886163681774
sI8
F0.13736056394868904
sI9
F0.12285902336679023
sI10
F0.20444977310879564
sI13
F0.12285902336679023
sI14
F0.06868028197434452
sI16
F0.22663336788336164
sI17
F0.26167213599451944
sI19
F0.1575633729158136
sI20
F0.07930515857181442
sI21
F0.25930372530182266
sI22
F0.20604084592303354
sI23
F0.1303116728289208
sI24
F0.1142908976639189
sI25
F0.11575388069913699
sI27
F0.19425717247145283
sI28
F0.03546634510659543
sI29
F0.02467068557457242
sI31
F0.23320381162846934
sI32
F0.1359517004088247
sI34
F0.2818579300831268
sI36
F0.1545427085630454
sI39
F0.31150447899069905
sI40
F0.06868028197434452
sI41
F0.03331483023263848
sI43
F0.04856429311786321
sI44
F0.0519174131651165
sI45
F0.14019303852301107
sI46
F0.06868028197434452
sI47
F0.20441928454519454
sI48
F0.03434014098717226
sI50
F0.2025271024713455
sI52
F0.14134285422946366
sI54
F0.09712858623572641
sI58
F0.06965451903188581
sI60
F0.09157370929912602
sI61
F0.13736056394868904
sI62
F0.25471391614863703
sI63
F0.07930515857181442
sI69
F0.10302042296151677
sI70
F0.11714148253148454
sI71
F0.09712858623572641
sI74
F0.11215443081840887
sI79
F0.0519174131651165
sI86
F0.08687444855261388
sI88
F0.12285902336679023
sI89
F0.14569287935358963
sI94
F0.15238786355189185
sI95
F0.27861807612754325
sI100
F0.18314741859825204
ssI12
g0
(tRp14
I1
F0.09944903161976938
sI5
F0.09325048082403138
sI6
F0.052342392259021375
sI7
F0.18257418583505536
sI10
F0.05547001962252291
sI15
F0.4472135954999579
sI16
F0.05270462766947299
sI17
F0.11359236684941296
sI19
F0.10259783520851541
sI23
F0.282842712474619
sI25
F0.1076763804116331
sI26
F0.22360679774997896
sI28
F0.11547005383792514
sI29
F0.08032193289024989
sI32
F0.07377111135633176
sI39
F0.0563436169819011
sI44
F0.1690308509457033
sI47
F0.035028472205202936
sI48
F0.11180339887498948
sI50
F0.0659380473395787
sI62
F0.05923488777590923
sI73
F0.1414213562373095
sI92
F0.18257418583505536
sI93
F0.4472135954999579
sI95
F0.07559289460184544
ssI13
g0
(tRp15
I1
F0.13259870882635919
sI2
F0.18786728732554486
sI9
F0.2
sI11
F0.12285902336679023
sI16
F0.05270462766947299
sI17
F0.11359236684941296
sI21
F0.060302268915552716
sI22
F0.22360679774997896
sI25
F0.05383819020581655
sI30
F0.15811388300841897
sI32
F0.03688555567816588
sI34
F0.04588314677411235
sI36
F0.05031546054266276
sI39
F0.1126872339638022
sI43
F0.15811388300841897
sI45
F0.09128709291752768
sI46
F0.22360679774997896
sI47
F0.07005694441040587
sI48
F0.11180339887498948
sI49
F0.4472135954999579
sI50
F0.03296902366978935
sI52
F0.07669649888473704
sI54
F0.31622776601683794
sI55
F0.22360679774997896
sI57
F0.22360679774997896
sI68
F0.2
sI76
F0.18257418583505536
sI77
F0.31622776601683794
sI78
F0.2
sI85
F0.12403473458920847
sI86
F0.1414213562373095
sI92
F0.18257418583505536
sI94
F0.12403473458920847
sI95
F0.07559289460184544
sI99
F0.31622776601683794
ssI14
g0
(tRp16
I1
F0.11118739749916517
sI3
F0.10206207261596577
sI6
F0.11704114719613057
sI8
F0.125
sI11
F0.06868028197434452
sI16
F0.1473139127471974
sI17
F0.19050019050028574
sI18
F0.06933752452815364
sI21
F0.06741998624632421
sI22
F0.125
sI23
F0.07905694150420949
sI25
F0.300964632714423
sI26
F0.125
sI28
F0.12909944487358055
sI29
F0.13470397652008118
sI30
F0.08838834764831843
sI31
F0.06063390625908324
sI32
F0.12371791482634838
sI34
F0.12824729401064427
sI35
F0.20412414523193154
sI36
F0.281271975231506
sI39
F0.0629940788348712
sI41
F0.18190171877724973
sI43
F0.08838834764831843
sI45
F0.10206207261596577
sI47
F0.15665208999759148
sI48
F0.0625
sI50
F0.16587220067425928
sI52
F0.21437323142813602
sI57
F0.125
sI58
F0.1267731382092775
sI62
F0.09933992677987828
sI66
F0.25
sI68
F0.11180339887498948
sI70
F0.10660035817780521
sI72
F0.2886751345948129
sI73
F0.07905694150420949
sI74
F0.10206207261596577
sI76
F0.10206207261596577
sI78
F0.11180339887498948
sI81
F0.10206207261596577
sI85
F0.06933752452815364
sI88
F0.11180339887498948
sI92
F0.10206207261596577
sI94
F0.1386750490563073
sI95
F0.08451542547285165
sI97
F0.20412414523193154
sI100
F0.08333333333333333
ssI15
g0
(tRp17
I1
F0.07412493166611012
sI12
F0.4472135954999579
sI93
F1.0
sI17
F0.1270001270001905
sI50
F0.07372097807744857
sI29
F0.1796053020267749
ssI16
g0
(tRp18
I1
F0.3057497440438928
sI2
F0.1650245904961124
sI3
F0.14433756729740643
sI5
F0.12286829679574762
sI6
F0.37242264987106555
sI7
F0.07216878364870322
sI8
F0.11785113019775793
sI9
F0.10540925533894598
sI10
F0.17541160386140583
sI11
F0.22663336788336164
sI12
F0.05270462766947299
sI13
F0.05270462766947299
sI14
F0.1473139127471974
sI17
F0.17960530202677488
sI18
F0.09805806756909201
sI19
F0.10814761408717503
sI20
F0.06804138174397717
sI21
F0.3019298199277709
sI22
F0.1473139127471974
sI23
F0.18633899812498247
sI24
F0.09805806756909201
sI25
F0.32631500345752035
sI28
F0.12171612389003691
sI29
F0.19050019050028577
sI30
F0.16666666666666666
sI31
F0.14291548761875736
sI32
F0.34020690871988585
sI34
F0.26600795837367097
sI35
F0.09622504486493763
sI36
F0.3049636256006965
sI39
F0.23756554836659946
sI41
F0.05716619504750295
sI43
F0.16666666666666666
sI44
F0.0445435403187374
sI45
F0.19245008972987526
sI46
F0.11785113019775793
sI47
F0.424617394643312
sI48
F0.05892556509887897
sI49
F0.11785113019775793
sI50
F0.34752402342845795
sI52
F0.16169041669088866
sI55
F0.11785113019775793
sI57
F0.11785113019775793
sI58
F0.07968190728895957
sI60
F0.039283710065919304
sI61
F0.05892556509887897
sI62
F0.06243905410544627
sI63
F0.13608276348795434
sI65
F0.08333333333333333
sI68
F0.10540925533894598
sI69
F0.1767766952966369
sI70
F0.251259453814803
sI73
F0.037267799624996496
sI74
F0.048112522432468816
sI76
F0.048112522432468816
sI77
F0.08333333333333333
sI78
F0.05270462766947299
sI79
F0.0445435403187374
sI82
F0.09622504486493763
sI85
F0.13074409009212268
sI86
F0.14907119849998599
sI88
F0.05270462766947299
sI89
F0.125
sI92
F0.14433756729740643
sI94
F0.2288021576612147
sI95
F0.11952286093343938
sI97
F0.09622504486493763
sI99
F0.08333333333333333
sI100
F0.15713484026367722
ssI17
g0
(tRp19
I1
F0.2447607691223871
sI2
F0.12448502395517627
sI3
F0.12961896184130317
sI5
F0.13240678533309402
sI6
F0.13377816502340914
sI7
F0.18146654657782443
sI9
F0.05679618342470648
sI10
F0.14177184340737956
sI11
F0.26167213599451944
sI12
F0.11359236684941296
sI13
F0.11359236684941296
sI14
F0.19050019050028574
sI15
F0.1270001270001905
sI16
F0.17960530202677488
sI18
F0.10567049305145204
sI19
F0.0582716546748065
sI21
F0.20549632357522252
sI22
F0.09525009525014287
sI24
F0.03522349768381734
sI25
F0.19875724220194652
sI26
F0.19050019050028574
sI28
F0.3607042096811741
sI29
F0.22809896167307986
sI30
F0.08980265101338746
sI31
F0.030802055181684874
sI32
F0.20949587860193328
sI34
F0.3127185144342257
sI35
F0.1555427542095638
sI36
F0.3143498738687622
sI39
F0.25600819239323697
sI40
F0.06350006350009525
sI41
F0.18481233109010925
sI43
F0.22450662753346864
sI45
F0.10369516947304253
sI46
F0.06350006350009525
sI47
F0.22879060623220296
sI48
F0.19050019050028574
sI50
F0.21533919230352722
sI52
F0.23958376302796766
sI54
F0.08980265101338746
sI55
F0.1270001270001905
sI57
F0.06350006350009525
sI58
F0.23613633490760053
sI60
F0.08466675133346034
sI61
F0.06350006350009525
sI62
F0.30278839961362003
sI63
F0.07332355751067665
sI66
F0.1270001270001905
sI68
F0.11359236684941296
sI69
F0.06350006350009525
sI70
F0.05415303610738823
sI72
F0.07332355751067665
sI73
F0.08032193289024989
sI74
F0.1555427542095638
sI76
F0.1555427542095638
sI78
F0.05679618342470648
sI79
F0.09600307214746386
sI81
F0.10369516947304253
sI82
F0.1555427542095638
sI84
F0.1270001270001905
sI85
F0.14089399073526937
sI86
F0.16064386578049977
sI88
F0.05679618342470648
sI89
F0.04490132550669373
sI92
F0.1555427542095638
sI93
F0.1270001270001905
sI94
F0.21134098610290408
sI95
F0.2576032744446551
sI97
F0.05184758473652126
sI100
F0.16933350266692068
ssI18
g0
(tRp20
I1
F0.10279278535093246
sI2
F0.07767356373806174
sI3
F0.11322770341445956
sI6
F0.09738412097417933
sI7
F0.05661385170722978
sI10
F0.1032031374230672
sI14
F0.06933752452815364
sI16
F0.09805806756909201
sI17
F0.10567049305145204
sI21
F0.07479575920067658
sI22
F0.06933752452815364
sI23
F0.08770580193070293
sI25
F0.10016708449412667
sI26
F0.1386750490563073
sI28
F0.1432229748078866
sI29
F0.04981354813867179
sI30
F0.09805806756909202
sI31
F0.06726727939963124
sI32
F0.2058790548922549
sI34
F0.02845551966122361
sI35
F0.11322770341445956
sI36
F0.15602161985357413
sI39
F0.06988565578146122
sI41
F0.06726727939963124
sI43
F0.09805806756909202
sI45
F0.11322770341445956
sI47
F0.1086186813259453
sI50
F0.12267912301642961
sI52
F0.047565149415449405
sI55
F0.1386750490563073
sI57
F0.1386750490563073
sI58
F0.09376144618769908
sI60
F0.09245003270420485
sI62
F0.0734718358370645
sI68
F0.24806946917841693
sI69
F0.1386750490563073
sI70
F0.11826247919781652
sI72
F0.16012815380508713
sI73
F0.08770580193070293
sI81
F0.11322770341445956
sI85
F0.15384615384615385
sI86
F0.08770580193070293
sI88
F0.12403473458920847
sI89
F0.09805806756909202
sI95
F0.04688072309384954
sI97
F0.11322770341445956
ssI19
g0
(tRp21
I1
F0.13604340477028715
sI2
F0.1606231415508089
sI3
F0.0936585811581694
sI5
F0.14350946197048195
sI6
F0.10740432270821094
sI7
F0.0468292905790847
sI9
F0.10259783520851541
sI10
F0.14227759830611805
sI11
F0.1575633729158136
sI12
F0.10259783520851541
sI16
F0.10814761408717503
sI17
F0.0582716546748065
sI21
F0.061868822488974594
sI23
F0.14509525002200233
sI24
F0.12725695259515554
sI25
F0.08285522649991613
sI31
F0.055641488407465724
sI32
F0.09460945407607456
sI34
F0.14122534594735514
sI36
F0.025811286645983367
sI39
F0.115614662603216
sI45
F0.1404878717372541
sI47
F0.12578458966204156
sI48
F0.11470786693528087
sI50
F0.06765100914917384
sI52
F0.039344473768231684
sI58
F0.038778336716474064
sI60
F0.07647191129018725
sI62
F0.0303868562731382
sI63
F0.13245323570650439
sI69
F0.057353933467640436
sI70
F0.0978231976089037
sI86
F0.07254762501100116
sI88
F0.10259783520851541
sI94
F0.06362847629757777
sI95
F0.038778336716474064
ssI20
g0
(tRp22
I2
F0.16169041669088866
sI5
F0.1203858530857692
sI6
F0.13514747567989718
sI8
F0.2886751345948129
sI9
F0.2581988897471611
sI11
F0.07930515857181442
sI16
F0.06804138174397717
sI21
F0.0778498944161523
sI22
F0.14433756729740646
sI23
F0.18257418583505536
sI24
F0.16012815380508713
sI25
F0.13900960937138318
sI27
F0.4082482904638631
sI31
F0.14002800840280097
sI32
F0.047619047619047616
sI36
F0.06495698024616309
sI47
F0.045221563164613454
sI61
F0.2886751345948129
sI62
F0.07647191129018725
sI65
F0.4082482904638631
sI71
F0.4082482904638631
sI74
F0.23570226039551587
sI79
F0.4364357804719848
sI89
F0.4082482904638631
sI95
F0.19518001458970666
ssI21
g0
(tRp23
I1
F0.2198900824313101
sI2
F0.1321696096086382
sI3
F0.055048188256318034
sI5
F0.08434823356733
sI6
F0.2682910261633824
sI7
F0.1651445647689541
sI8
F0.13483997249264842
sI9
F0.060302268915552716
sI10
F0.1337987216011345
sI11
F0.25930372530182266
sI13
F0.060302268915552716
sI14
F0.06741998624632421
sI16
F0.3019298199277709
sI17
F0.20549632357522252
sI18
F0.07479575920067658
sI19
F0.061868822488974594
sI20
F0.0778498944161523
sI22
F0.10112997936948631
sI23
F0.04264014327112208
sI24
F0.03739787960033829
sI25
F0.3408893274903718
sI26
F0.06741998624632421
sI28
F0.1044465935734187
sI29
F0.09687189593929656
sI30
F0.19069251784911848
sI31
F0.19622098205031857
sI32
F0.24467109673647866
sI34
F0.26285149626910836
sI35
F0.11009637651263607
sI36
F0.2427309145802826
sI39
F0.20385887657505022
sI41
F0.16351748504193214
sI43
F0.14301938838683884
sI45
F0.27524094128159016
sI46
F0.13483997249264842
sI47
F0.2957214890866756
sI49
F0.13483997249264842
sI50
F0.34791871296330057
sI52
F0.20812378052829614
sI55
F0.13483997249264842
sI57
F0.13483997249264842
sI58
F0.11396057645963796
sI62
F0.10715994395536396
sI63
F0.0778498944161523
sI65
F0.09534625892455924
sI68
F0.12060453783110543
sI69
F0.1685499656158105
sI70
F0.1149919149152138
sI73
F0.08528028654224416
sI74
F0.055048188256318034
sI76
F0.055048188256318034
sI77
F0.09534625892455924
sI78
F0.060302268915552716
sI79
F0.050964719143762556
sI82
F0.11009637651263607
sI84
F0.13483997249264842
sI85
F0.11219363880101485
sI86
F0.04264014327112208
sI89
F0.04767312946227962
sI92
F0.055048188256318034
sI94
F0.2243872776020297
sI95
F0.09116846116771037
sI99
F0.09534625892455924
sI100
F0.1797866299901979
ssI22
g0
(tRp24
I1
F0.11118739749916517
sI2
F0.2450490147049017
sI3
F0.051031036307982884
sI5
F0.05212860351426869
sI6
F0.23408229439226114
sI7
F0.15309310892394865
sI9
F0.11180339887498948
sI10
F0.15504341823651058
sI11
F0.20604084592303354
sI13
F0.22360679774997896
sI14
F0.125
sI16
F0.1473139127471974
sI17
F0.09525009525014287
sI18
F0.06933752452815364
sI20
F0.14433756729740646
sI21
F0.10112997936948631
sI23
F0.23717082451262844
sI24
F0.06933752452815364
sI25
F0.1504823163572115
sI27
F0.35355339059327373
sI29
F0.04490132550669373
sI30
F0.17677669529663687
sI31
F0.36380343755449945
sI32
F0.1649572197684645
sI34
F0.10259783520851541
sI36
F0.1687631851389036
sI39
F0.157485197087178
sI43
F0.08838834764831843
sI44
F0.0944911182523068
sI45
F0.051031036307982884
sI46
F0.25
sI47
F0.2349781349963872
sI49
F0.25
sI50
F0.129011711635535
sI52
F0.12862393885688161
sI54
F0.17677669529663687
sI55
F0.125
sI57
F0.25
sI60
F0.08333333333333333
sI61
F0.375
sI62
F0.13245323570650439
sI68
F0.11180339887498948
sI70
F0.15990053726670783
sI71
F0.35355339059327373
sI72
F0.14433756729740646
sI74
F0.20412414523193154
sI76
F0.10206207261596577
sI77
F0.17677669529663687
sI78
F0.11180339887498948
sI79
F0.0944911182523068
sI85
F0.06933752452815364
sI86
F0.15811388300841897
sI89
F0.2651650429449553
sI92
F0.20412414523193154
sI94
F0.20801257358446093
sI95
F0.2958039891549808
sI99
F0.17677669529663687
sI100
F0.08333333333333333
ssI23
g0
(tRp25
I1
F0.09376144618769908
sI2
F0.08856148855400953
sI3
F0.06454972243679027
sI5
F0.0659380473395787
sI6
F0.2220699630592816
sI7
F0.06454972243679027
sI8
F0.15811388300841897
sI9
F0.1414213562373095
sI10
F0.07844645405527362
sI11
F0.1303116728289208
sI12
F0.282842712474619
sI14
F0.07905694150420949
sI16
F0.18633899812498247
sI18
F0.08770580193070293
sI19
F0.14509525002200233
sI20
F0.18257418583505536
sI21
F0.04264014327112208
sI22
F0.23717082451262844
sI25
F0.11420804814403214
sI27
F0.22360679774997896
sI31
F0.15339299776947407
sI32
F0.07824607964359516
sI34
F0.06488856845230502
sI36
F0.071156806696482
sI39
F0.07968190728895957
sI44
F0.11952286093343936
sI45
F0.06454972243679027
sI47
F0.12384435115451749
sI50
F0.11656310103003922
sI52
F0.05423261445466404
sI57
F0.15811388300841897
sI60
F0.10540925533894598
sI61
F0.31622776601683794
sI62
F0.04188539082916955
sI69
F0.07905694150420949
sI70
F0.13483997249264842
sI71
F0.22360679774997896
sI79
F0.11952286093343936
sI86
F0.1
sI89
F0.22360679774997896
sI95
F0.16035674514745463
sI100
F0.10540925533894598
ssI24
g0
(tRp26
I1
F0.04111711414037299
sI2
F0.1165103456070926
sI5
F0.11566298639324804
sI6
F0.09738412097417933
sI8
F0.1386750490563073
sI9
F0.12403473458920847
sI10
F0.06880209161537815
sI11
F0.1142908976639189
sI16
F0.09805806756909201
sI17
F0.03522349768381734
sI19
F0.12725695259515554
sI20
F0.16012815380508713
sI21
F0.03739787960033829
sI22
F0.06933752452815364
sI25
F0.033389028164708894
sI29
F0.04981354813867179
sI32
F0.0915018021743355
sI34
F0.08536655898367082
sI36
F0.062408647941429654
sI44
F0.10482848367219183
sI47
F0.04344747253037812
sI50
F0.08178608201095307
sI58
F0.04688072309384954
sI60
F0.1849000654084097
sI62
F0.0734718358370645
sI63
F0.16012815380508713
sI65
F0.19611613513818404
sI70
F0.11826247919781652
sI71
F0.19611613513818404
sI74
F0.11322770341445956
sI79
F0.10482848367219183
sI86
F0.08770580193070293
sI88
F0.12403473458920847
sI89
F0.19611613513818404
sI94
F0.15384615384615385
ssI25
g0
(tRp27
I1
F0.2587842008729214
sI2
F0.10114434748483472
sI3
F0.12286829679574762
sI5
F0.07530655685082074
sI6
F0.3522524587835815
sI7
F0.14744195615489714
sI8
F0.1203858530857692
sI9
F0.05383819020581655
sI10
F0.08959216401473294
sI11
F0.11575388069913699
sI12
F0.1076763804116331
sI13
F0.05383819020581655
sI14
F0.300964632714423
sI16
F0.32631500345752035
sI17
F0.19875724220194652
sI18
F0.10016708449412667
sI19
F0.08285522649991613
sI20
F0.13900960937138318
sI21
F0.3408893274903718
sI22
F0.1504823163572115
sI23
F0.11420804814403214
sI24
F0.033389028164708894
sI26
F0.0601929265428846
sI28
F0.18650096164806276
sI29
F0.17297550002576423
sI30
F0.2553769592276246
sI31
F0.14598929061844595
sI32
F0.3574532812406996
sI34
F0.2840805420755968
sI35
F0.14744195615489714
sI36
F0.48760080029804437
sI39
F0.13650472655798704
sI41
F0.11679143249475675
sI43
F0.08512565307587486
sI44
F0.045501575519329006
sI45
F0.3194575716689438
sI46
F0.1203858530857692
sI47
F0.33945651885651734
sI49
F0.1203858530857692
sI50
F0.3904983647915211
sI52
F0.3716280625569003
sI55
F0.2407717061715384
sI57
F0.1805787796286538
sI58
F0.18314030870020792
sI61
F0.0601929265428846
sI62
F0.17540045351947794
sI63
F0.13900960937138318
sI65
F0.08512565307587486
sI66
F0.1203858530857692
sI68
F0.2153527608232662
sI69
F0.1504823163572115
sI70
F0.10266540046786907
sI72
F0.06950480468569159
sI73
F0.0761386987626881
sI74
F0.0982946374365981
sI76
F0.14744195615489714
sI77
F0.08512565307587486
sI78
F0.26919095102908275
sI79
F0.09100315103865801
sI81
F0.0982946374365981
sI82
F0.0982946374365981
sI85
F0.26711222531767115
sI86
F0.11420804814403214
sI88
F0.05383819020581655
sI89
F0.04256282653793743
sI92
F0.24573659359149524
sI94
F0.20033416898825335
sI95
F0.14244246232238394
sI97
F0.04914731871829905
sI99
F0.17025130615174972
sI100
F0.24077170617153842
ssI26
g0
(tRp28
I1
F0.07412493166611012
sI3
F0.10206207261596577
sI5
F0.20851441405707477
sI6
F0.058520573598065284
sI7
F0.10206207261596577
sI10
F0.062017367294604234
sI12
F0.22360679774997896
sI14
F0.125
sI17
F0.19050019050028574
sI18
F0.1386750490563073
sI21
F0.06741998624632421
sI25
F0.0601929265428846
sI28
F0.2581988897471611
sI29
F0.08980265101338746
sI30
F0.17677669529663687
sI32
F0.12371791482634838
sI35
F0.20412414523193154
sI36
F0.1125087900926024
sI39
F0.1259881576697424
sI41
F0.24253562503633297
sI47
F0.07832604499879574
sI48
F0.125
sI50
F0.036860489038724284
sI52
F0.08574929257125441
sI58
F0.1690308509457033
sI61
F0.25
sI62
F0.19867985355975656
sI63
F0.2886751345948129
sI68
F0.22360679774997896
sI70
F0.10660035817780521
sI72
F0.2886751345948129
sI73
F0.15811388300841897
sI76
F0.20412414523193154
sI79
F0.1889822365046136
sI81
F0.4082482904638631
sI82
F0.20412414523193154
sI85
F0.1386750490563073
sI86
F0.15811388300841897
sI92
F0.4082482904638631
sI95
F0.08451542547285165
sI97
F0.20412414523193154
sI100
F0.16666666666666666
ssI27
g0
(tRp29
I1
F0.052414241836095915
sI2
F0.19802950859533489
sI5
F0.14744195615489714
sI6
F0.1655211777204736
sI7
F0.14433756729740646
sI11
F0.19425717247145283
sI20
F0.4082482904638631
sI22
F0.35355339059327373
sI23
F0.22360679774997896
sI31
F0.34299717028501764
sI32
F0.05832118435198043
sI34
F0.07254762501100116
sI36
F0.079555728417573
sI39
F0.0890870806374748
sI46
F0.35355339059327373
sI52
F0.12126781251816648
sI61
F0.7071067811865475
sI62
F0.1873171623163388
sI71
F0.5
sI74
F0.2886751345948129
sI79
F0.2672612419124244
sI89
F0.25
sI94
F0.19611613513818404
sI95
F0.11952286093343936
ssI28
g0
(tRp30
I1
F0.0956948752938691
sI2
F0.07231015260621873
sI5
F0.05383819020581655
sI6
F0.12087957704309989
sI7
F0.15811388300841897
sI10
F0.06405126152203486
sI11
F0.03546634510659543
sI12
F0.11547005383792514
sI14
F0.12909944487358055
sI16
F0.12171612389003691
sI17
F0.3607042096811741
sI18
F0.1432229748078866
sI21
F0.1044465935734187
sI25
F0.18650096164806276
sI26
F0.2581988897471611
sI29
F0.09274777915203367
sI30
F0.18257418583505536
sI32
F0.12777531299998798
sI34
F0.18543452998910614
sI35
F0.31622776601683794
sI36
F0.2323971575096507
sI39
F0.09759000729485331
sI41
F0.1252448582170299
sI43
F0.18257418583505536
sI45
F0.15811388300841897
sI47
F0.10111848928487621
sI48
F0.12909944487358055
sI50
F0.11420804814403214
sI52
F0.2656844656620286
sI55
F0.2581988897471611
sI58
F0.2618614682831909
sI60
F0.08606629658238704
sI62
F0.06839855680567694
sI68
F0.23094010767585027
sI69
F0.06454972243679027
sI72
F0.14907119849998599
sI73
F0.08164965809277261
sI78
F0.23094010767585027
sI81
F0.10540925533894598
sI82
F0.10540925533894598
sI85
F0.2864459496157732
sI86
F0.08164965809277261
sI92
F0.10540925533894598
sI94
F0.1432229748078866
sI95
F0.04364357804719848
sI97
F0.10540925533894598
sI99
F0.18257418583505536
sI100
F0.08606629658238704
ssI29
g0
(tRp31
I1
F0.23963815331290364
sI2
F0.15089863644835705
sI4
F0.1796053020267749
sI6
F0.18919089532549122
sI7
F0.036661778755338326
sI10
F0.08910918387082259
sI11
F0.02467068557457242
sI12
F0.08032193289024989
sI14
F0.13470397652008118
sI15
F0.1796053020267749
sI16
F0.19050019050028577
sI17
F0.22809896167307986
sI18
F0.04981354813867179
sI21
F0.09687189593929656
sI22
F0.04490132550669373
sI24
F0.04981354813867179
sI25
F0.17297550002576423
sI26
F0.08980265101338746
sI28
F0.09274777915203367
sI30
F0.19050019050028574
sI32
F0.2962719127801215
sI34
F0.1842711517991869
sI35
F0.1466471150213533
sI36
F0.24248610270298646
sI39
F0.13576884666042613
sI40
F0.08980265101338746
sI41
F0.08712136837380642
sI43
F0.254000254000381
sI45
F0.10998533626601498
sI47
F0.25321991343428646
sI48
F0.08980265101338746
sI50
F0.23833221359956924
sI52
F0.1232082207267395
sI55
F0.08980265101338746
sI58
F0.12143534814378325
sI62
F0.04757860680698065
sI68
F0.16064386578049977
sI69
F0.13470397652008118
sI70
F0.11487593716012254
sI72
F0.20739033894608505
sI78
F0.08032193289024989
sI81
F0.1466471150213533
sI82
F0.21997067253202995
sI85
F0.24906774069335894
sI92
F0.1466471150213533
sI93
F0.1796053020267749
sI94
F0.14944064441601537
sI95
F0.060717674071891624
sI97
F0.1466471150213533
sI100
F0.05986843400892496
ssI30
g0
(tRp32
I1
F0.10482848367219183
sI2
F0.09901475429766744
sI6
F0.12414088329035519
sI7
F0.14433756729740646
sI10
F0.043852900965351466
sI13
F0.15811388300841897
sI14
F0.08838834764831843
sI16
F0.16666666666666666
sI17
F0.08980265101338746
sI18
F0.09805806756909202
sI21
F0.19069251784911848
sI22
F0.17677669529663687
sI25
F0.2553769592276246
sI26
F0.17677669529663687
sI28
F0.18257418583505536
sI29
F0.19050019050028574
sI31
F0.08574929257125441
sI32
F0.20412414523193148
sI34
F0.10882143751650175
sI35
F0.43301270189221935
sI36
F0.1988893210439325
sI39
F0.0890870806374748
sI41
F0.08574929257125441
sI43
F0.25
sI45
F0.07216878364870323
sI46
F0.35355339059327373
sI47
F0.1661546326865134
sI49
F0.35355339059327373
sI50
F0.10425720702853739
sI52
F0.12126781251816648
sI55
F0.35355339059327373
sI57
F0.17677669529663687
sI58
F0.05976143046671968
sI68
F0.4743416490252569
sI72
F0.20412414523193154
sI76
F0.14433756729740646
sI77
F0.25
sI78
F0.15811388300841897
sI81
F0.14433756729740646
sI82
F0.14433756729740646
sI85
F0.4902903378454601
sI86
F0.11180339887498948
sI92
F0.14433756729740646
sI94
F0.19611613513818404
sI95
F0.05976143046671968
sI97
F0.14433756729740646
sI99
F0.25
sI100
F0.11785113019775793
ssI31
g0
(tRp33
I1
F0.07191174652966195
sI2
F0.13584712216226488
sI3
F0.09901475429766744
sI5
F0.10114434748483472
sI6
F0.19870653453128084
sI7
F0.2475368857441686
sI9
F0.10846522890932808
sI10
F0.1504142093990467
sI11
F0.23320381162846934
sI14
F0.06063390625908324
sI16
F0.14291548761875736
sI17
F0.030802055181684874
sI18
F0.06726727939963124
sI19
F0.055641488407465724
sI20
F0.14002800840280097
sI21
F0.19622098205031857
sI22
F0.36380343755449945
sI23
F0.15339299776947407
sI25
F0.14598929061844595
sI27
F0.34299717028501764
sI30
F0.08574929257125441
sI32
F0.14002800840280097
sI34
F0.04976726017934395
sI36
F0.10914955890876363
sI39
F0.1527830828380352
sI44
F0.09166984970282113
sI45
F0.04950737714883372
sI46
F0.12126781251816648
sI47
F0.13297799396284807
sI50
F0.12515974447412653
sI52
F0.0831890330807703
sI58
F0.040996003084539386
sI61
F0.24253562503633297
sI62
F0.12849851324064712
sI63
F0.14002800840280097
sI69
F0.12126781251816648
sI70
F0.10341753799900383
sI71
F0.17149858514250882
sI74
F0.19802950859533489
sI79
F0.09166984970282113
sI89
F0.08574929257125441
sI94
F0.1345345587992625
sI95
F0.20498001542269695
sI100
F0.16169041669088866
ssI32
g0
(tRp34
I1
F0.3484821153303148
sI2
F0.1963383631246505
sI3
F0.10101525445522108
sI4
F0.08247860988423225
sI5
F0.13758383209802194
sI6
F0.38613564479970625
sI7
F0.16835875742536846
sI10
F0.26598552464321795
sI11
F0.1359517004088247
sI12
F0.07377111135633176
sI13
F0.03688555567816588
sI14
F0.12371791482634838
sI16
F0.34020690871988585
sI17
F0.20949587860193328
sI18
F0.2058790548922549
sI19
F0.09460945407607456
sI20
F0.047619047619047616
sI21
F0.24467109673647866
sI22
F0.1649572197684645
sI23
F0.07824607964359516
sI24
F0.0915018021743355
sI25
F0.3574532812406996
sI26
F0.12371791482634838
sI27
F0.05832118435198043
sI28
F0.12777531299998798
sI29
F0.2962719127801215
sI30
F0.20412414523193148
sI31
F0.14002800840280097
sI34
F0.24540167792876683
sI35
F0.06734350297014739
sI36
F0.3433440384440049
sI39
F0.16626124970361325
sI40
F0.08247860988423225
sI41
F0.2000400120040014
sI43
F0.11664236870396086
sI44
F0.09352195295828244
sI45
F0.16835875742536846
sI46
F0.08247860988423225
sI47
F0.4845167481922871
sI48
F0.10309826235529032
sI49
F0.08247860988423225
sI50
F0.44386947675277605
sI52
F0.22631943839466842
sI55
F0.1649572197684645
sI57
F0.12371791482634838
sI58
F0.25094573304390855
sI60
F0.08247860988423225
sI61
F0.12371791482634838
sI62
F0.2621894101377849
sI63
F0.09523809523809523
sI65
F0.05832118435198043
sI68
F0.18442777839082938
sI69
F0.1649572197684645
sI70
F0.21101398453599896
sI72
F0.09523809523809523
sI73
F0.13041013273932528
sI74
F0.06734350297014739
sI76
F0.13468700594029479
sI77
F0.05832118435198043
sI78
F0.1475422227126635
sI79
F0.06234796863885496
sI80
F0.041239304942116126
sI81
F0.13468700594029479
sI82
F0.13468700594029479
sI85
F0.16012815380508713
sI86
F0.15649215928719032
sI88
F0.03688555567816588
sI89
F0.08748177652797064
sI92
F0.16835875742536846
sI94
F0.16012815380508713
sI95
F0.20912144420325712
sI97
F0.033671751485073696
sI99
F0.05832118435198043
sI100
F0.1649572197684645
ssI34
g0
(tRp35
I1
F0.4106731062917897
sI2
F0.24423169902168218
sI3
F0.04188539082916955
sI5
F0.12835876495216744
sI6
F0.26417970331817237
sI7
F0.12565617248750865
sI8
F0.10259783520851541
sI9
F0.04588314677411235
sI10
F0.1654340383737022
sI11
F0.2818579300831268
sI13
F0.04588314677411235
sI14
F0.12824729401064427
sI16
F0.26600795837367097
sI17
F0.3127185144342257
sI18
F0.02845551966122361
sI19
F0.14122534594735514
sI21
F0.26285149626910836
sI22
F0.10259783520851541
sI23
F0.06488856845230502
sI24
F0.08536655898367082
sI25
F0.2840805420755968
sI27
F0.07254762501100116
sI28
F0.18543452998910614
sI29
F0.1842711517991869
sI30
F0.10882143751650175
sI31
F0.04976726017934395
sI32
F0.24540167792876683
sI35
F0.12565617248750865
sI36
F0.2770357993303265
sI39
F0.3231528059706172
sI40
F0.10259783520851541
sI41
F0.07465089026901592
sI43
F0.10882143751650175
sI45
F0.23036964956043252
sI46
F0.10259783520851541
sI47
F0.3776958848940968
sI48
F0.10259783520851541
sI50
F0.34036257420902905
sI52
F0.21114460292333606
sI54
F0.07254762501100116
sI55
F0.10259783520851541
sI57
F0.10259783520851541
sI58
F0.173421993904824
sI60
F0.17099639201419237
sI61
F0.051298917604257706
sI62
F0.2174306439976094
sI69
F0.051298917604257706
sI70
F0.08749572785196143
sI72
F0.05923488777590923
sI73
F0.03244428422615251
sI74
F0.04188539082916955
sI76
F0.04188539082916955
sI78
F0.13764944032233706
sI79
F0.038778336716474064
sI82
F0.0837707816583391
sI85
F0.11382207864489444
sI86
F0.03244428422615251
sI89
F0.03627381250550058
sI92
F0.04188539082916955
sI94
F0.17073311796734164
sI95
F0.1040531963428944
sI97
F0.0837707816583391
sI100
F0.10259783520851541
ssI35
g0
(tRp36
I1
F0.060522753266880246
sI2
F0.05716619504750295
sI6
F0.04778184825674966
sI14
F0.20412414523193154
sI16
F0.09622504486493763
sI17
F0.1555427542095638
sI18
F0.11322770341445956
sI21
F0.11009637651263607
sI25
F0.14744195615489714
sI26
F0.20412414523193154
sI28
F0.31622776601683794
sI29
F0.1466471150213533
sI30
F0.43301270189221935
sI32
F0.06734350297014739
sI34
F0.12565617248750865
sI36
F0.13779456365238762
sI39
F0.05143444998736397
sI41
F0.09901475429766744
sI43
F0.14433756729740646
sI45
F0.08333333333333333
sI46
F0.4082482904638631
sI47
F0.12790589587821588
sI50
F0.1203858530857692
sI52
F0.14002800840280097
sI55
F0.20412414523193154
sI58
F0.20701966780270628
sI68
F0.18257418583505536
sI72
F0.23570226039551587
sI77
F0.2886751345948129
sI78
F0.18257418583505536
sI81
F0.16666666666666666
sI82
F0.16666666666666666
sI85
F0.3396831102433787
sI94
F0.11322770341445956
sI97
F0.16666666666666666
sI100
F0.13608276348795434
ssI36
g0
(tRp37
I1
F0.29188972321078077
sI2
F0.157543818044759
sI3
F0.09186304243492507
sI5
F0.18767763553943526
sI6
F0.2896994729659103
sI7
F0.06889728182619381
sI8
F0.0562543950463012
sI9
F0.05031546054266276
sI10
F0.09768498542662232
sI11
F0.1545427085630454
sI13
F0.05031546054266276
sI14
F0.281271975231506
sI16
F0.3049636256006965
sI17
F0.3143498738687622
sI18
F0.15602161985357413
sI19
F0.025811286645983367
sI20
F0.06495698024616309
sI21
F0.2427309145802826
sI22
F0.1687631851389036
sI23
F0.071156806696482
sI24
F0.062408647941429654
sI25
F0.48760080029804437
sI26
F0.1125087900926024
sI27
F0.079555728417573
sI28
F0.2323971575096507
sI29
F0.24248610270298646
sI30
F0.1988893210439325
sI31
F0.10914955890876363
sI32
F0.3433440384440049
sI34
F0.2770357993303265
sI35
F0.13779456365238762
sI39
F0.18427207741044366
sI41
F0.19101172809033634
sI43
F0.159111456835146
sI45
F0.2296576060873127
sI46
F0.1125087900926024
sI47
F0.29962053088881013
sI48
F0.0562543950463012
sI49
F0.1125087900926024
sI50
F0.3400645799654171
sI52
F0.2315411798037219
sI55
F0.2250175801852048
sI57
F0.1687631851389036
sI58
F0.24722693486691327
sI60
F0.037502930030867465
sI61
F0.1687631851389036
sI62
F0.25333660598421454
sI63
F0.12991396049232617
sI65
F0.079555728417573
sI68
F0.2515773027133138
sI69
F0.140635987615753
sI70
F0.0719608639321375
sI72
F0.12991396049232617
sI73
F0.035578403348241
sI74
F0.13779456365238762
sI76
F0.09186304243492507
sI77
F0.079555728417573
sI78
F0.2515773027133138
sI79
F0.12757297666876868
sI80
F0.0562543950463012
sI81
F0.18372608486985015
sI82
F0.09186304243492507
sI84
F0.1125087900926024
sI85
F0.2184302677950038
sI86
F0.213470420089446
sI89
F0.11933359262635951
sI92
F0.18372608486985015
sI94
F0.28083891573643344
sI95
F0.17115710875401688
sI97
F0.09186304243492507
sI99
F0.159111456835146
sI100
F0.18751465015433733
ssI39
g0
(tRp38
I1
F0.3081824980742892
sI2
F0.22934432041081737
sI3
F0.10286889997472794
sI5
F0.15762208124782015
sI6
F0.1622037835747299
sI7
F0.1543033499620919
sI8
F0.0629940788348712
sI9
F0.1126872339638022
sI10
F0.18752289237539815
sI11
F0.31150447899069905
sI12
F0.0563436169819011
sI13
F0.1126872339638022
sI14
F0.0629940788348712
sI16
F0.23756554836659946
sI17
F0.25600819239323697
sI18
F0.06988565578146122
sI19
F0.115614662603216
sI21
F0.20385887657505022
sI22
F0.157485197087178
sI23
F0.07968190728895957
sI25
F0.13650472655798704
sI26
F0.1259881576697424
sI27
F0.0890870806374748
sI28
F0.09759000729485331
sI29
F0.13576884666042613
sI30
F0.0890870806374748
sI31
F0.1527830828380352
sI32
F0.16626124970361325
sI34
F0.3231528059706172
sI35
F0.05143444998736397
sI36
F0.18427207741044366
sI40
F0.0629940788348712
sI41
F0.061113233135214086
sI43
F0.0445435403187374
sI44
F0.047619047619047616
sI45
F0.25717224993681986
sI46
F0.1259881576697424
sI47
F0.2763083149947573
sI48
F0.0944911182523068
sI49
F0.1259881576697424
sI50
F0.30650301691644405
sI52
F0.08642716314028859
sI54
F0.0890870806374748
sI55
F0.0629940788348712
sI57
F0.1259881576697424
sI58
F0.085183541999992
sI60
F0.0419960525565808
sI61
F0.0629940788348712
sI62
F0.10012523486435178
sI63
F0.07273929674533079
sI68
F0.1126872339638022
sI69
F0.157485197087178
sI70
F0.08058229640253803
sI72
F0.07273929674533079
sI73
F0.07968190728895957
sI74
F0.10286889997472794
sI76
F0.05143444998736397
sI77
F0.0890870806374748
sI78
F0.0563436169819011
sI79
F0.047619047619047616
sI81
F0.05143444998736397
sI85
F0.13977131156292244
sI86
F0.07968190728895957
sI89
F0.0445435403187374
sI92
F0.10286889997472794
sI94
F0.10482848367219183
sI95
F0.191662969499982
sI97
F0.05143444998736397
sI99
F0.1781741612749496
ssI40
g0
(tRp39
I32
F0.08247860988423225
sI1
F0.07412493166611012
sI34
F0.10259783520851541
sI100
F0.16666666666666666
sI6
F0.11704114719613057
sI39
F0.0629940788348712
sI11
F0.06868028197434452
sI17
F0.06350006350009525
sI50
F0.036860489038724284
sI52
F0.08574929257125441
sI58
F0.08451542547285165
sI29
F0.08980265101338746
sI62
F0.06622661785325219
sI95
F0.08451542547285165
ssI41
g0
(tRp40
I1
F0.08988968316207743
sI3
F0.14852213144650114
sI5
F0.10114434748483472
sI6
F0.08515994337054894
sI7
F0.04950737714883372
sI10
F0.030082841879809342
sI11
F0.03331483023263848
sI14
F0.18190171877724973
sI16
F0.05716619504750295
sI17
F0.18481233109010925
sI18
F0.06726727939963124
sI21
F0.16351748504193214
sI25
F0.11679143249475675
sI26
F0.24253562503633297
sI28
F0.1252448582170299
sI29
F0.08712136837380642
sI30
F0.08574929257125441
sI32
F0.2000400120040014
sI34
F0.07465089026901592
sI35
F0.09901475429766744
sI36
F0.19101172809033634
sI39
F0.061113233135214086
sI43
F0.08574929257125441
sI45
F0.04950737714883372
sI47
F0.09498428140203433
sI50
F0.1609196714667341
sI52
F0.12478354962115545
sI58
F0.20498001542269695
sI62
F0.12849851324064712
sI66
F0.24253562503633297
sI68
F0.21693045781865616
sI69
F0.06063390625908324
sI70
F0.051708768999501914
sI72
F0.14002800840280097
sI73
F0.07669649888473704
sI74
F0.09901475429766744
sI76
F0.19802950859533489
sI80
F0.12126781251816648
sI81
F0.09901475429766744
sI85
F0.1345345587992625
sI86
F0.07669649888473704
sI88
F0.10846522890932808
sI94
F0.06726727939963124
sI97
F0.09901475429766744
ssI43
g0
(tRp41
I1
F0.10482848367219183
sI2
F0.09901475429766744
sI6
F0.12414088329035519
sI7
F0.07216878364870323
sI11
F0.04856429311786321
sI13
F0.15811388300841897
sI14
F0.08838834764831843
sI16
F0.16666666666666666
sI17
F0.22450662753346864
sI18
F0.09805806756909202
sI21
F0.14301938838683884
sI22
F0.08838834764831843
sI25
F0.08512565307587486
sI28
F0.18257418583505536
sI29
F0.254000254000381
sI30
F0.25
sI32
F0.11664236870396086
sI34
F0.10882143751650175
sI35
F0.14433756729740646
sI36
F0.159111456835146
sI39
F0.0445435403187374
sI41
F0.08574929257125441
sI45
F0.07216878364870323
sI46
F0.17677669529663687
sI47
F0.05538487756217113
sI49
F0.35355339059327373
sI50
F0.07819290527140305
sI52
F0.18190171877724973
sI55
F0.35355339059327373
sI57
F0.17677669529663687
sI58
F0.05976143046671968
sI60
F0.11785113019775793
sI62
F0.0936585811581694
sI68
F0.15811388300841897
sI76
F0.14433756729740646
sI77
F0.25
sI78
F0.15811388300841897
sI82
F0.2886751345948129
sI85
F0.19611613513818404
sI86
F0.22360679774997896
sI92
F0.14433756729740646
sI94
F0.29417420270727607
sI99
F0.25
sI100
F0.11785113019775793
ssI44
g0
(tRp42
I32
F0.09352195295828244
sI1
F0.05603318146805258
sI6
F0.04423739552038088
sI70
F0.08058229640253803
sI39
F0.047619047619047616
sI10
F0.04688072309384954
sI11
F0.0519174131651165
sI12
F0.1690308509457033
sI47
F0.059208924641733704
sI16
F0.0445435403187374
sI50
F0.05572782125753528
sI22
F0.0944911182523068
sI23
F0.11952286093343936
sI24
F0.10482848367219183
sI25
F0.045501575519329006
sI58
F0.06388765649999399
sI62
F0.05006261743217589
sI31
F0.09166984970282113
ssI45
g0
(tRp43
I1
F0.13617619485048055
sI2
F0.14291548761875736
sI3
F0.08333333333333333
sI4
F0.20412414523193154
sI5
F0.04256282653793743
sI6
F0.11945462064187415
sI7
F0.125
sI8
F0.10206207261596577
sI9
F0.09128709291752768
sI10
F0.025318484177091666
sI11
F0.14019303852301107
sI13
F0.09128709291752768
sI14
F0.10206207261596577
sI16
F0.19245008972987526
sI17
F0.10369516947304253
sI18
F0.11322770341445956
sI19
F0.1404878717372541
sI21
F0.27524094128159016
sI22
F0.051031036307982884
sI23
F0.06454972243679027
sI25
F0.3194575716689438
sI28
F0.15811388300841897
sI29
F0.10998533626601498
sI30
F0.07216878364870323
sI31
F0.04950737714883372
sI32
F0.16835875742536846
sI34
F0.23036964956043252
sI35
F0.08333333333333333
sI36
F0.2296576060873127
sI39
F0.25717224993681986
sI41
F0.04950737714883372
sI43
F0.07216878364870323
sI46
F0.10206207261596577
sI47
F0.2078470808021008
sI48
F0.051031036307982884
sI49
F0.20412414523193154
sI50
F0.25581993780725953
sI52
F0.21004201260420147
sI55
F0.20412414523193154
sI57
F0.3061862178478973
sI58
F0.10350983390135314
sI62
F0.02703690352179376
sI68
F0.27386127875258304
sI69
F0.051031036307982884
sI73
F0.12909944487358055
sI76
F0.08333333333333333
sI77
F0.14433756729740646
sI78
F0.27386127875258304
sI79
F0.07715167498104596
sI85
F0.16984155512168936
sI86
F0.12909944487358055
sI89
F0.07216878364870323
sI92
F0.16666666666666666
sI94
F0.16984155512168936
sI95
F0.06900655593423542
sI97
F0.08333333333333333
sI99
F0.2886751345948129
ssI46
g0
(tRp44
I1
F0.11118739749916517
sI2
F0.14002800840280097
sI5
F0.10425720702853739
sI6
F0.058520573598065284
sI7
F0.10206207261596577
sI11
F0.06868028197434452
sI13
F0.22360679774997896
sI16
F0.11785113019775793
sI17
F0.06350006350009525
sI21
F0.13483997249264842
sI22
F0.25
sI25
F0.1203858530857692
sI27
F0.35355339059327373
sI30
F0.35355339059327373
sI31
F0.12126781251816648
sI32
F0.08247860988423225
sI34
F0.10259783520851541
sI35
F0.4082482904638631
sI36
F0.1125087900926024
sI39
F0.1259881576697424
sI43
F0.17677669529663687
sI45
F0.10206207261596577
sI47
F0.07832604499879574
sI49
F0.5
sI50
F0.11058146711617285
sI52
F0.17149858514250882
sI55
F0.25
sI57
F0.25
sI58
F0.08451542547285165
sI61
F0.25
sI62
F0.06622661785325219
sI68
F0.22360679774997896
sI74
F0.20412414523193154
sI76
F0.20412414523193154
sI77
F0.35355339059327373
sI78
F0.22360679774997896
sI85
F0.2773500981126146
sI86
F0.15811388300841897
sI92
F0.20412414523193154
sI94
F0.2773500981126146
sI99
F0.35355339059327373
ssI47
g0
(tRp45
I1
F0.3889961531252308
sI2
F0.2412924819194898
sI3
F0.04796471095433095
sI5
F0.09799265626999179
sI6
F0.3575274363177971
sI7
F0.0959294219086619
sI8
F0.07832604499879574
sI9
F0.035028472205202936
sI10
F0.3303151068968329
sI11
F0.20441928454519454
sI12
F0.035028472205202936
sI13
F0.07005694441040587
sI14
F0.15665208999759148
sI16
F0.424617394643312
sI17
F0.22879060623220296
sI18
F0.1086186813259453
sI19
F0.12578458966204156
sI20
F0.045221563164613454
sI21
F0.2957214890866756
sI22
F0.2349781349963872
sI23
F0.12384435115451749
sI24
F0.04344747253037812
sI25
F0.33945651885651734
sI26
F0.07832604499879574
sI28
F0.10111848928487621
sI29
F0.25321991343428646
sI30
F0.1661546326865134
sI31
F0.13297799396284807
sI32
F0.4845167481922871
sI34
F0.3776958848940968
sI35
F0.12790589587821588
sI36
F0.29962053088881013
sI39
F0.2763083149947573
sI41
F0.09498428140203433
sI43
F0.05538487756217113
sI44
F0.059208924641733704
sI45
F0.2078470808021008
sI46
F0.07832604499879574
sI48
F0.09790755624849468
sI49
F0.07832604499879574
sI50
F0.5485559013936996
sI52
F0.17462647666232534
sI53
F0.07832604499879574
sI54
F0.05538487756217113
sI55
F0.07832604499879574
sI57
F0.1174890674981936
sI58
F0.07943710822414736
sI60
F0.13054340833132622
sI61
F0.03916302249939787
sI62
F0.16599260960294016
sI63
F0.045221563164613454
sI68
F0.10508541661560881
sI69
F0.1762336012472904
sI70
F0.2838858713517655
sI72
F0.09044312632922691
sI73
F0.04953774046180699
sI74
F0.03197647396955397
sI76
F0.06395294793910794
sI77
F0.05538487756217113
sI78
F0.10508541661560881
sI79
F0.029604462320866852
sI81
F0.03197647396955397
sI82
F0.0959294219086619
sI85
F0.13034241759113435
sI86
F0.0743066106927105
sI89
F0.11076975512434226
sI92
F0.0959294219086619
sI94
F0.1520661538563234
sI95
F0.2383113246724421
sI97
F0.12790589587821588
sI99
F0.05538487756217113
sI100
F0.07832604499879572
ssI48
g0
(tRp46
I1
F0.1853123291652753
sI2
F0.07001400420140048
sI3
F0.051031036307982884
sI5
F0.10425720702853739
sI6
F0.029260286799032642
sI7
F0.15309310892394865
sI8
F0.125
sI10
F0.09302605094190634
sI11
F0.03434014098717226
sI12
F0.11180339887498948
sI13
F0.11180339887498948
sI14
F0.0625
sI16
F0.05892556509887897
sI17
F0.19050019050028574
sI19
F0.11470786693528087
sI26
F0.125
sI28
F0.12909944487358055
sI29
F0.08980265101338746
sI32
F0.10309826235529032
sI34
F0.10259783520851541
sI36
F0.0562543950463012
sI39
F0.0944911182523068
sI45
F0.051031036307982884
sI47
F0.09790755624849468
sI50
F0.055290733558086426
sI58
F0.042257712736425826
sI62
F0.13245323570650439
sI73
F0.07905694150420949
sI79
F0.0944911182523068
sI86
F0.07905694150420949
sI89
F0.08838834764831843
sI92
F0.10206207261596577
sI95
F0.1267731382092775
ssI49
g0
(tRp47
I1
F0.07412493166611012
sI2
F0.14002800840280097
sI13
F0.4472135954999579
sI16
F0.11785113019775793
sI21
F0.13483997249264842
sI22
F0.25
sI25
F0.1203858530857692
sI30
F0.35355339059327373
sI32
F0.08247860988423225
sI36
F0.1125087900926024
sI39
F0.1259881576697424
sI43
F0.35355339059327373
sI45
F0.20412414523193154
sI46
F0.5
sI47
F0.07832604499879574
sI50
F0.07372097807744857
sI52
F0.17149858514250882
sI55
F0.5
sI57
F0.5
sI68
F0.4472135954999579
sI76
F0.4082482904638631
sI77
F0.7071067811865475
sI78
F0.4472135954999579
sI85
F0.2773500981126146
sI86
F0.31622776601683794
sI92
F0.4082482904638631
sI94
F0.2773500981126146
sI99
F0.7071067811865475
ssI50
g0
(tRp48
I1
F0.39891305975152647
sI2
F0.1651680278030668
sI3
F0.0601929265428846
sI4
F0.07372097807744857
sI5
F0.09223131928520185
sI6
F0.30199357463118803
sI7
F0.0902893898143269
sI8
F0.036860489038724284
sI10
F0.24688697263631607
sI11
F0.2025271024713455
sI12
F0.0659380473395787
sI13
F0.03296902366978935
sI14
F0.16587220067425928
sI15
F0.07372097807744857
sI16
F0.34752402342845795
sI17
F0.21533919230352722
sI18
F0.12267912301642961
sI19
F0.06765100914917384
sI21
F0.34791871296330057
sI22
F0.129011711635535
sI23
F0.11656310103003922
sI24
F0.08178608201095307
sI25
F0.3904983647915211
sI26
F0.036860489038724284
sI28
F0.11420804814403214
sI29
F0.23833221359956924
sI30
F0.10425720702853739
sI31
F0.12515974447412653
sI32
F0.44386947675277605
sI34
F0.34036257420902905
sI35
F0.1203858530857692
sI36
F0.3400645799654171
sI39
F0.30650301691644405
sI40
F0.036860489038724284
sI41
F0.1609196714667341
sI43
F0.07819290527140305
sI44
F0.05572782125753528
sI45
F0.25581993780725953
sI46
F0.11058146711617285
sI47
F0.5485559013936996
sI48
F0.055290733558086426
sI49
F0.07372097807744857
sI52
F0.22757478184087812
sI53
F0.07372097807744857
sI55
F0.11058146711617285
sI57
F0.14744195615489714
sI58
F0.19937791451169073
sI60
F0.07372097807744857
sI62
F0.13670414920128873
sI63
F0.04256282653793743
sI68
F0.09890707100936805
sI69
F0.23959317875170785
sI70
F0.20432574937512774
sI72
F0.08512565307587486
sI73
F0.06993786061802354
sI74
F0.0300964632714423
sI76
F0.0300964632714423
sI77
F0.05212860351426869
sI78
F0.16484511834894675
sI80
F0.036860489038724284
sI82
F0.1203858530857692
sI85
F0.14312564351916787
sI86
F0.023312620206007845
sI88
F0.03296902366978935
sI89
F0.05212860351426869
sI92
F0.1203858530857692
sI93
F0.07372097807744857
sI94
F0.16357216402190614
sI95
F0.1370723162267874
sI97
F0.0601929265428846
sI99
F0.10425720702853739
sI100
F0.12286829679574762
ssI52
g0
(tRp49
I1
F0.21610945537689158
sI2
F0.09605842128561483
sI3
F0.14002800840280097
sI5
F0.10727978097782273
sI6
F0.10036195573796254
sI7
F0.10502100630210073
sI8
F0.08574929257125441
sI10
F0.0425435629811517
sI11
F0.14134285422946366
sI13
F0.07669649888473704
sI14
F0.21437323142813602
sI16
F0.16169041669088866
sI17
F0.23958376302796766
sI18
F0.047565149415449405
sI19
F0.039344473768231684
sI21
F0.20812378052829614
sI22
F0.12862393885688161
sI23
F0.05423261445466404
sI25
F0.3716280625569003
sI26
F0.08574929257125441
sI27
F0.12126781251816648
sI28
F0.2656844656620286
sI29
F0.1232082207267395
sI30
F0.12126781251816648
sI31
F0.0831890330807703
sI32
F0.22631943839466842
sI34
F0.21114460292333606
sI35
F0.14002800840280097
sI36
F0.2315411798037219
sI39
F0.08642716314028859
sI40
F0.08574929257125441
sI41
F0.12478354962115545
sI43
F0.18190171877724973
sI45
F0.21004201260420147
sI46
F0.17149858514250882
sI47
F0.17462647666232534
sI49
F0.17149858514250882
sI50
F0.22757478184087812
sI53
F0.17149858514250882
sI55
F0.25724787771376323
sI57
F0.08574929257125441
sI58
F0.2608969660436018
sI61
F0.17149858514250882
sI62
F0.15900879764848913
sI63
F0.09901475429766744
sI66
F0.17149858514250882
sI68
F0.15339299776947407
sI69
F0.08574929257125441
sI70
F0.036563621206356534
sI73
F0.05423261445466404
sI74
F0.14002800840280097
sI76
F0.21004201260420147
sI77
F0.12126781251816648
sI78
F0.3834824944236852
sI79
F0.06482037235521644
sI81
F0.07001400420140048
sI82
F0.28005601680560194
sI85
F0.19026059766179762
sI86
F0.10846522890932808
sI88
F0.07669649888473704
sI92
F0.21004201260420147
sI94
F0.19026059766179762
sI95
F0.057977103565244846
sI99
F0.12126781251816648
sI100
F0.2286647801900118
ssI53
g0
(tRp50
I1
F0.07412493166611012
sI82
F0.4082482904638631
sI52
F0.17149858514250882
sI50
F0.07372097807744857
sI47
F0.07832604499879574
ssI54
g0
(tRp51
I1
F0.052414241836095915
sI2
F0.19802950859533489
sI5
F0.14744195615489714
sI39
F0.0890870806374748
sI9
F0.31622776601683794
sI10
F0.08770580193070293
sI11
F0.09712858623572641
sI34
F0.07254762501100116
sI13
F0.31622776601683794
sI17
F0.08980265101338746
sI22
F0.17677669529663687
sI47
F0.05538487756217113
sI74
F0.2886751345948129
sI62
F0.0936585811581694
sI95
F0.23904572186687872
ssI55
g0
(tRp52
I1
F0.11118739749916517
sI2
F0.14002800840280097
sI6
F0.058520573598065284
sI13
F0.22360679774997896
sI16
F0.11785113019775793
sI17
F0.1270001270001905
sI18
F0.1386750490563073
sI21
F0.13483997249264842
sI22
F0.125
sI25
F0.2407717061715384
sI28
F0.2581988897471611
sI29
F0.08980265101338746
sI30
F0.35355339059327373
sI32
F0.1649572197684645
sI34
F0.10259783520851541
sI35
F0.20412414523193154
sI36
F0.2250175801852048
sI39
F0.0629940788348712
sI43
F0.35355339059327373
sI45
F0.20412414523193154
sI46
F0.25
sI47
F0.07832604499879574
sI49
F0.5
sI50
F0.11058146711617285
sI52
F0.25724787771376323
sI57
F0.5
sI58
F0.1690308509457033
sI62
F0.06622661785325219
sI68
F0.4472135954999579
sI76
F0.20412414523193154
sI77
F0.35355339059327373
sI78
F0.22360679774997896
sI82
F0.20412414523193154
sI85
F0.2773500981126146
sI86
F0.15811388300841897
sI92
F0.20412414523193154
sI94
F0.2773500981126146
sI99
F0.35355339059327373
sI100
F0.16666666666666666
ssI57
g0
(tRp53
I1
F0.07412493166611012
sI2
F0.07001400420140048
sI13
F0.22360679774997896
sI14
F0.125
sI16
F0.11785113019775793
sI17
F0.06350006350009525
sI18
F0.1386750490563073
sI21
F0.13483997249264842
sI22
F0.25
sI23
F0.15811388300841897
sI25
F0.1805787796286538
sI30
F0.17677669529663687
sI32
F0.12371791482634838
sI34
F0.10259783520851541
sI36
F0.1687631851389036
sI39
F0.1259881576697424
sI43
F0.17677669529663687
sI45
F0.3061862178478973
sI46
F0.25
sI47
F0.1174890674981936
sI49
F0.5
sI50
F0.14744195615489714
sI52
F0.08574929257125441
sI55
F0.5
sI58
F0.08451542547285165
sI60
F0.16666666666666666
sI68
F0.4472135954999579
sI76
F0.20412414523193154
sI77
F0.35355339059327373
sI78
F0.22360679774997896
sI85
F0.1386750490563073
sI86
F0.15811388300841897
sI92
F0.20412414523193154
sI94
F0.2773500981126146
sI99
F0.35355339059327373
ssI58
g0
(tRp54
I1
F0.16288220358559113
sI3
F0.06900655593423542
sI5
F0.035245368842512066
sI6
F0.09891782353111633
sI7
F0.13801311186847084
sI9
F0.07559289460184544
sI10
F0.04193139346887673
sI11
F0.06965451903188581
sI14
F0.1267731382092775
sI16
F0.07968190728895957
sI17
F0.23613633490760053
sI18
F0.09376144618769908
sI19
F0.038778336716474064
sI21
F0.11396057645963796
sI24
F0.04688072309384954
sI25
F0.18314030870020792
sI26
F0.1690308509457033
sI28
F0.2618614682831909
sI29
F0.12143534814378325
sI30
F0.05976143046671968
sI31
F0.040996003084539386
sI32
F0.25094573304390855
sI34
F0.173421993904824
sI35
F0.20701966780270628
sI36
F0.24722693486691327
sI39
F0.085183541999992
sI40
F0.08451542547285165
sI41
F0.20498001542269695
sI43
F0.05976143046671968
sI44
F0.06388765649999399
sI45
F0.10350983390135314
sI46
F0.08451542547285165
sI47
F0.07943710822414736
sI48
F0.042257712736425826
sI50
F0.19937791451169073
sI52
F0.2608969660436018
sI55
F0.1690308509457033
sI57
F0.08451542547285165
sI59
F0.1690308509457033
sI61
F0.08451542547285165
sI62
F0.11194341570991126
sI63
F0.09759000729485333
sI68
F0.15118578920369088
sI69
F0.042257712736425826
sI72
F0.09759000729485333
sI73
F0.05345224838248487
sI76
F0.06900655593423542
sI78
F0.15118578920369088
sI79
F0.12777531299998798
sI80
F0.1690308509457033
sI81
F0.13801311186847084
sI82
F0.06900655593423542
sI84
F0.1690308509457033
sI85
F0.09376144618769908
sI86
F0.05345224838248487
sI89
F0.05976143046671968
sI92
F0.06900655593423542
sI94
F0.09376144618769908
sI95
F0.05714285714285714
sI97
F0.06900655593423542
sI100
F0.1126872339638022
ssI59
g0
(tRp55
I80
F0.5
sI58
F0.1690308509457033
sI94
F0.2773500981126146
ssI60
g0
(tRp56
I1
F0.09883324222148017
sI2
F0.09335200560186732
sI3
F0.06804138174397717
sI5
F0.13900960937138318
sI6
F0.07802743146408704
sI7
F0.06804138174397717
sI8
F0.16666666666666666
sI10
F0.12403473458920847
sI11
F0.09157370929912602
sI16
F0.039283710065919304
sI17
F0.08466675133346034
sI18
F0.09245003270420485
sI19
F0.07647191129018725
sI22
F0.08333333333333333
sI23
F0.10540925533894598
sI24
F0.1849000654084097
sI28
F0.08606629658238704
sI32
F0.08247860988423225
sI34
F0.17099639201419237
sI36
F0.037502930030867465
sI39
F0.0419960525565808
sI43
F0.11785113019775793
sI47
F0.13054340833132622
sI50
F0.07372097807744857
sI57
F0.16666666666666666
sI62
F0.08830215713766959
sI69
F0.08333333333333333
sI70
F0.1421338109037403
sI86
F0.10540925533894598
sI94
F0.09245003270420485
ssI61
g0
(tRp57
I1
F0.11118739749916517
sI2
F0.21004201260420147
sI3
F0.10206207261596577
sI5
F0.20851441405707477
sI6
F0.17556172079419585
sI7
F0.10206207261596577
sI11
F0.13736056394868904
sI16
F0.05892556509887897
sI17
F0.06350006350009525
sI20
F0.2886751345948129
sI22
F0.375
sI23
F0.31622776601683794
sI25
F0.0601929265428846
sI26
F0.25
sI27
F0.7071067811865475
sI31
F0.24253562503633297
sI32
F0.12371791482634838
sI34
F0.051298917604257706
sI36
F0.1687631851389036
sI39
F0.0629940788348712
sI46
F0.25
sI47
F0.03916302249939787
sI52
F0.17149858514250882
sI58
F0.08451542547285165
sI62
F0.19867985355975656
sI63
F0.2886751345948129
sI71
F0.35355339059327373
sI74
F0.20412414523193154
sI76
F0.20412414523193154
sI79
F0.3779644730092272
sI81
F0.20412414523193154
sI82
F0.20412414523193154
sI86
F0.31622776601683794
sI89
F0.35355339059327373
sI92
F0.20412414523193154
sI94
F0.1386750490563073
sI95
F0.253546276418555
sI100
F0.16666666666666666
ssI62
g0
(tRp58
I1
F0.19636174091399627
sI2
F0.20401879082737434
sI3
F0.1892583246525563
sI5
F0.27618408833305375
sI6
F0.1705272652262163
sI7
F0.24333213169614382
sI8
F0.06622661785325219
sI10
F0.18071682129971953
sI11
F0.25471391614863703
sI12
F0.05923488777590923
sI14
F0.09933992677987828
sI16
F0.06243905410544627
sI17
F0.30278839961362003
sI18
F0.0734718358370645
sI19
F0.0303868562731382
sI20
F0.07647191129018725
sI21
F0.10715994395536396
sI22
F0.13245323570650439
sI23
F0.04188539082916955
sI24
F0.0734718358370645
sI25
F0.17540045351947794
sI26
F0.19867985355975656
sI27
F0.1873171623163388
sI28
F0.06839855680567694
sI29
F0.04757860680698065
sI31
F0.12849851324064712
sI32
F0.2621894101377849
sI34
F0.2174306439976094
sI36
F0.25333660598421454
sI39
F0.10012523486435178
sI40
F0.06622661785325219
sI41
F0.12849851324064712
sI43
F0.0936585811581694
sI44
F0.05006261743217589
sI45
F0.02703690352179376
sI46
F0.06622661785325219
sI47
F0.16599260960294016
sI48
F0.13245323570650439
sI50
F0.13670414920128873
sI52
F0.15900879764848913
sI54
F0.0936585811581694
sI55
F0.06622661785325219
sI58
F0.11194341570991126
sI60
F0.08830215713766959
sI61
F0.19867985355975656
sI63
F0.07647191129018725
sI69
F0.033113308926626096
sI70
F0.14119562368122626
sI71
F0.0936585811581694
sI73
F0.0837707816583391
sI74
F0.16222142113076254
sI76
F0.16222142113076254
sI79
F0.10012523486435178
sI81
F0.05407380704358752
sI82
F0.10814761408717503
sI85
F0.03673591791853225
sI86
F0.1675415633166782
sI89
F0.1404878717372541
sI92
F0.10814761408717503
sI94
F0.11020775375559676
sI95
F0.22388683141982252
sI100
F0.17660431427533918
ssI63
g0
(tRp59
I1
F0.08559209850218258
sI3
F0.11785113019775793
sI5
F0.1203858530857692
sI6
F0.13514747567989718
sI11
F0.07930515857181442
sI16
F0.13608276348795434
sI17
F0.07332355751067665
sI19
F0.13245323570650439
sI21
F0.0778498944161523
sI24
F0.16012815380508713
sI25
F0.13900960937138318
sI26
F0.2886751345948129
sI31
F0.14002800840280097
sI32
F0.09523809523809523
sI36
F0.12991396049232617
sI39
F0.07273929674533079
sI47
F0.045221563164613454
sI50
F0.04256282653793743
sI52
F0.09901475429766744
sI58
F0.09759000729485333
sI61
F0.2886751345948129
sI62
F0.07647191129018725
sI69
F0.14433756729740646
sI70
F0.24618298195866545
sI76
F0.23570226039551587
sI79
F0.2182178902359924
sI81
F0.23570226039551587
sI82
F0.23570226039551587
sI86
F0.3651483716701107
sI88
F0.2581988897471611
sI92
F0.23570226039551587
sI95
F0.09759000729485333
sI100
F0.19245008972987526
ssI65
g0
(tRp60
I32
F0.05832118435198043
sI2
F0.09901475429766744
sI36
F0.079555728417573
sI5
F0.14744195615489714
sI6
F0.1655211777204736
sI8
F0.35355339059327373
sI9
F0.31622776601683794
sI74
F0.2886751345948129
sI79
F0.2672612419124244
sI16
F0.08333333333333333
sI20
F0.4082482904638631
sI21
F0.09534625892455924
sI89
F0.25
sI24
F0.19611613513818404
sI25
F0.08512565307587486
ssI66
g0
(tRp61
I3
F0.20412414523193154
sI41
F0.24253562503633297
sI74
F0.4082482904638631
sI76
F0.4082482904638631
sI14
F0.25
sI17
F0.1270001270001905
sI52
F0.17149858514250882
sI88
F0.4472135954999579
sI25
F0.1203858530857692
ssI68
g0
(tRp62
I1
F0.033149677206589796
sI2
F0.06262242910851495
sI13
F0.2
sI14
F0.11180339887498948
sI16
F0.10540925533894598
sI17
F0.11359236684941296
sI18
F0.24806946917841693
sI21
F0.12060453783110543
sI22
F0.11180339887498948
sI25
F0.2153527608232662
sI26
F0.22360679774997896
sI28
F0.23094010767585027
sI29
F0.16064386578049977
sI30
F0.4743416490252569
sI32
F0.18442777839082938
sI35
F0.18257418583505536
sI36
F0.2515773027133138
sI39
F0.1126872339638022
sI41
F0.21693045781865616
sI43
F0.15811388300841897
sI45
F0.27386127875258304
sI46
F0.22360679774997896
sI47
F0.10508541661560881
sI49
F0.4472135954999579
sI50
F0.09890707100936805
sI52
F0.15339299776947407
sI55
F0.4472135954999579
sI57
F0.4472135954999579
sI58
F0.15118578920369088
sI69
F0.11180339887498948
sI72
F0.2581988897471611
sI76
F0.18257418583505536
sI77
F0.31622776601683794
sI78
F0.2
sI81
F0.18257418583505536
sI85
F0.3721042037676254
sI86
F0.1414213562373095
sI92
F0.18257418583505536
sI94
F0.24806946917841693
sI97
F0.18257418583505536
sI99
F0.31622776601683794
ssI69
g0
(tRp63
I1
F0.22237479499833035
sI2
F0.03500700210070024
sI3
F0.15309310892394865
sI6
F0.1463014339951632
sI7
F0.051031036307982884
sI10
F0.1860521018838127
sI11
F0.10302042296151677
sI16
F0.1767766952966369
sI17
F0.06350006350009525
sI18
F0.1386750490563073
sI19
F0.057353933467640436
sI21
F0.1685499656158105
sI23
F0.07905694150420949
sI25
F0.1504823163572115
sI28
F0.06454972243679027
sI29
F0.13470397652008118
sI31
F0.12126781251816648
sI32
F0.1649572197684645
sI34
F0.051298917604257706
sI36
F0.140635987615753
sI39
F0.157485197087178
sI41
F0.06063390625908324
sI45
F0.051031036307982884
sI47
F0.1762336012472904
sI50
F0.23959317875170785
sI52
F0.08574929257125441
sI58
F0.042257712736425826
sI60
F0.08333333333333333
sI62
F0.033113308926626096
sI63
F0.14433756729740646
sI68
F0.11180339887498948
sI70
F0.15990053726670783
sI85
F0.06933752452815364
sI88
F0.11180339887498948
sI94
F0.1386750490563073
ssI70
g0
(tRp64
I1
F0.17383837384127884
sI2
F0.059708143402653215
sI3
F0.04351941398892446
sI5
F0.08891084489487741
sI6
F0.2495325642529748
sI8
F0.10660035817780521
sI10
F0.18511005987178078
sI11
F0.11714148253148454
sI14
F0.10660035817780521
sI16
F0.251259453814803
sI17
F0.05415303610738823
sI18
F0.11826247919781652
sI19
F0.0978231976089037
sI21
F0.1149919149152138
sI22
F0.15990053726670783
sI23
F0.13483997249264842
sI24
F0.11826247919781652
sI25
F0.10266540046786907
sI26
F0.10660035817780521
sI29
F0.11487593716012254
sI31
F0.10341753799900383
sI32
F0.21101398453599896
sI34
F0.08749572785196143
sI36
F0.0719608639321375
sI39
F0.08058229640253803
sI41
F0.051708768999501914
sI44
F0.08058229640253803
sI47
F0.2838858713517655
sI50
F0.20432574937512774
sI52
F0.036563621206356534
sI60
F0.1421338109037403
sI62
F0.14119562368122626
sI63
F0.24618298195866545
sI69
F0.15990053726670783
sI76
F0.08703882797784893
sI86
F0.06741998624632421
sI88
F0.09534625892455924
sI89
F0.07537783614444091
sI94
F0.05913123959890826
sI95
F0.07207499701564471
sI97
F0.08703882797784893
sI100
F0.07106690545187015
ssI71
g0
(tRp65
I2
F0.09901475429766744
sI6
F0.0827605888602368
sI95
F0.11952286093343936
sI11
F0.09712858623572641
sI79
F0.2672612419124244
sI20
F0.4082482904638631
sI62
F0.0936585811581694
sI22
F0.35355339059327373
sI23
F0.22360679774997896
sI24
F0.19611613513818404
sI89
F0.25
sI27
F0.5
sI61
F0.35355339059327373
sI94
F0.19611613513818404
sI31
F0.17149858514250882
ssI72
g0
(tRp66
I6
F0.06757373783994859
sI14
F0.2886751345948129
sI17
F0.07332355751067665
sI18
F0.16012815380508713
sI22
F0.14433756729740646
sI25
F0.06950480468569159
sI26
F0.2886751345948129
sI28
F0.14907119849998599
sI29
F0.20739033894608505
sI30
F0.20412414523193154
sI32
F0.09523809523809523
sI34
F0.05923488777590923
sI35
F0.23570226039551587
sI36
F0.12991396049232617
sI39
F0.07273929674533079
sI41
F0.14002800840280097
sI47
F0.09044312632922691
sI50
F0.08512565307587486
sI58
F0.09759000729485333
sI68
F0.2581988897471611
sI81
F0.23570226039551587
sI82
F0.23570226039551587
sI85
F0.16012815380508713
sI97
F0.23570226039551587
ssI73
g0
(tRp67
I1
F0.09376144618769908
sI2
F0.04428074427700476
sI5
F0.0659380473395787
sI6
F0.037011660509880265
sI7
F0.12909944487358055
sI10
F0.03922322702763681
sI12
F0.1414213562373095
sI14
F0.07905694150420949
sI16
F0.037267799624996496
sI17
F0.08032193289024989
sI18
F0.08770580193070293
sI21
F0.08528028654224416
sI25
F0.0761386987626881
sI26
F0.15811388300841897
sI28
F0.08164965809277261
sI32
F0.13041013273932528
sI34
F0.03244428422615251
sI36
F0.035578403348241
sI39
F0.07968190728895957
sI41
F0.07669649888473704
sI45
F0.12909944487358055
sI47
F0.04953774046180699
sI48
F0.07905694150420949
sI50
F0.06993786061802354
sI52
F0.05423261445466404
sI58
F0.05345224838248487
sI62
F0.0837707816583391
sI92
F0.12909944487358055
sI95
F0.05345224838248487
ssI74
g0
(tRp68
I1
F0.030261376633440123
sI2
F0.2286647801900118
sI3
F0.16666666666666666
sI5
F0.2553769592276246
sI6
F0.09556369651349932
sI7
F0.08333333333333333
sI8
F0.20412414523193154
sI9
F0.18257418583505536
sI10
F0.10127393670836667
sI11
F0.11215443081840887
sI14
F0.10206207261596577
sI16
F0.048112522432468816
sI17
F0.1555427542095638
sI20
F0.23570226039551587
sI21
F0.055048188256318034
sI22
F0.20412414523193154
sI24
F0.11322770341445956
sI25
F0.0982946374365981
sI27
F0.2886751345948129
sI31
F0.19802950859533489
sI32
F0.06734350297014739
sI34
F0.04188539082916955
sI36
F0.13779456365238762
sI39
F0.10286889997472794
sI41
F0.09901475429766744
sI46
F0.20412414523193154
sI47
F0.03197647396955397
sI50
F0.0300964632714423
sI52
F0.14002800840280097
sI54
F0.2886751345948129
sI61
F0.20412414523193154
sI62
F0.16222142113076254
sI65
F0.2886751345948129
sI66
F0.4082482904638631
sI76
F0.16666666666666666
sI79
F0.1543033499620919
sI88
F0.18257418583505536
sI89
F0.14433756729740646
sI94
F0.11322770341445956
sI95
F0.13801311186847084
ssI76
g0
(tRp69
I1
F0.12104550653376049
sI2
F0.05716619504750295
sI3
F0.25
sI5
F0.08512565307587486
sI6
F0.04778184825674966
sI13
F0.18257418583505536
sI14
F0.10206207261596577
sI16
F0.048112522432468816
sI17
F0.1555427542095638
sI21
F0.055048188256318034
sI22
F0.10206207261596577
sI25
F0.14744195615489714
sI26
F0.20412414523193154
sI30
F0.14433756729740646
sI32
F0.13468700594029479
sI34
F0.04188539082916955
sI36
F0.09186304243492507
sI39
F0.05143444998736397
sI41
F0.19802950859533489
sI43
F0.14433756729740646
sI45
F0.08333333333333333
sI46
F0.20412414523193154
sI47
F0.06395294793910794
sI49
F0.4082482904638631
sI50
F0.0300964632714423
sI52
F0.21004201260420147
sI55
F0.20412414523193154
sI57
F0.20412414523193154
sI58
F0.06900655593423542
sI61
F0.20412414523193154
sI62
F0.16222142113076254
sI63
F0.23570226039551587
sI66
F0.4082482904638631
sI68
F0.18257418583505536
sI70
F0.08703882797784893
sI74
F0.16666666666666666
sI77
F0.2886751345948129
sI78
F0.18257418583505536
sI79
F0.1543033499620919
sI81
F0.16666666666666666
sI82
F0.16666666666666666
sI85
F0.11322770341445956
sI86
F0.2581988897471611
sI88
F0.18257418583505536
sI92
F0.3333333333333333
sI94
F0.11322770341445956
sI95
F0.06900655593423542
sI99
F0.2886751345948129
sI100
F0.13608276348795434
ssI77
g0
(tRp70
I1
F0.052414241836095915
sI2
F0.09901475429766744
sI13
F0.31622776601683794
sI16
F0.08333333333333333
sI21
F0.09534625892455924
sI22
F0.17677669529663687
sI25
F0.08512565307587486
sI30
F0.25
sI32
F0.05832118435198043
sI35
F0.2886751345948129
sI36
F0.079555728417573
sI39
F0.0890870806374748
sI43
F0.25
sI45
F0.14433756729740646
sI46
F0.35355339059327373
sI47
F0.05538487756217113
sI49
F0.7071067811865475
sI50
F0.05212860351426869
sI52
F0.12126781251816648
sI55
F0.35355339059327373
sI57
F0.35355339059327373
sI68
F0.31622776601683794
sI76
F0.2886751345948129
sI78
F0.31622776601683794
sI85
F0.19611613513818404
sI86
F0.22360679774997896
sI92
F0.2886751345948129
sI94
F0.19611613513818404
sI99
F0.5
ssI78
g0
(tRp71
I1
F0.13259870882635919
sI2
F0.06262242910851495
sI6
F0.052342392259021375
sI13
F0.2
sI14
F0.11180339887498948
sI16
F0.05270462766947299
sI17
F0.05679618342470648
sI21
F0.060302268915552716
sI22
F0.11180339887498948
sI25
F0.26919095102908275
sI28
F0.23094010767585027
sI29
F0.08032193289024989
sI30
F0.15811388300841897
sI32
F0.1475422227126635
sI34
F0.13764944032233706
sI35
F0.18257418583505536
sI36
F0.2515773027133138
sI39
F0.0563436169819011
sI43
F0.15811388300841897
sI45
F0.27386127875258304
sI46
F0.22360679774997896
sI47
F0.10508541661560881
sI49
F0.4472135954999579
sI50
F0.16484511834894675
sI52
F0.3834824944236852
sI55
F0.22360679774997896
sI57
F0.22360679774997896
sI58
F0.15118578920369088
sI68
F0.2
sI76
F0.18257418583505536
sI77
F0.31622776601683794
sI85
F0.24806946917841693
sI86
F0.1414213562373095
sI92
F0.3651483716701107
sI94
F0.12403473458920847
sI99
F0.31622776601683794
ssI79
g0
(tRp72
I1
F0.08404977220207886
sI2
F0.15877683720748895
sI3
F0.07715167498104596
sI5
F0.23643312187173018
sI6
F0.17694958208152353
sI7
F0.07715167498104596
sI8
F0.3779644730092272
sI9
F0.3380617018914066
sI11
F0.0519174131651165
sI16
F0.0445435403187374
sI17
F0.09600307214746386
sI20
F0.4364357804719848
sI21
F0.050964719143762556
sI22
F0.0944911182523068
sI23
F0.11952286093343936
sI24
F0.10482848367219183
sI25
F0.09100315103865801
sI26
F0.1889822365046136
sI27
F0.2672612419124244
sI31
F0.09166984970282113
sI32
F0.06234796863885496
sI34
F0.038778336716474064
sI36
F0.12757297666876868
sI39
F0.047619047619047616
sI45
F0.07715167498104596
sI47
F0.029604462320866852
sI48
F0.0944911182523068
sI52
F0.06482037235521644
sI58
F0.12777531299998798
sI61
F0.3779644730092272
sI62
F0.10012523486435178
sI63
F0.2182178902359924
sI65
F0.2672612419124244
sI71
F0.2672612419124244
sI74
F0.1543033499620919
sI76
F0.1543033499620919
sI81
F0.1543033499620919
sI82
F0.1543033499620919
sI86
F0.35856858280031806
sI89
F0.4008918628686366
sI92
F0.1543033499620919
sI95
F0.25555062599997597
sI100
F0.2519763153394848
ssI80
g0
(tRp73
I32
F0.041239304942116126
sI36
F0.0562543950463012
sI41
F0.12126781251816648
sI50
F0.036860489038724284
sI58
F0.1690308509457033
sI59
F0.5
sI94
F0.1386750490563073
ssI81
g0
(tRp74
I1
F0.09078412990032037
sI3
F0.08333333333333333
sI5
F0.08512565307587486
sI6
F0.14334554477024897
sI14
F0.10206207261596577
sI17
F0.10369516947304253
sI18
F0.11322770341445956
sI25
F0.0982946374365981
sI26
F0.4082482904638631
sI28
F0.10540925533894598
sI29
F0.1466471150213533
sI30
F0.14433756729740646
sI32
F0.13468700594029479
sI35
F0.16666666666666666
sI36
F0.18372608486985015
sI39
F0.05143444998736397
sI41
F0.09901475429766744
sI47
F0.03197647396955397
sI52
F0.07001400420140048
sI58
F0.13801311186847084
sI61
F0.20412414523193154
sI62
F0.05407380704358752
sI63
F0.23570226039551587
sI68
F0.18257418583505536
sI72
F0.23570226039551587
sI76
F0.16666666666666666
sI79
F0.1543033499620919
sI82
F0.16666666666666666
sI85
F0.11322770341445956
sI86
F0.12909944487358055
sI92
F0.16666666666666666
sI95
F0.06900655593423542
sI97
F0.16666666666666666
sI100
F0.13608276348795434
ssI82
g0
(tRp75
I1
F0.09078412990032037
sI2
F0.05716619504750295
sI3
F0.08333333333333333
sI5
F0.17025130615174972
sI6
F0.09556369651349932
sI16
F0.09622504486493763
sI17
F0.1555427542095638
sI21
F0.11009637651263607
sI25
F0.0982946374365981
sI26
F0.20412414523193154
sI28
F0.10540925533894598
sI29
F0.21997067253202995
sI30
F0.14433756729740646
sI32
F0.13468700594029479
sI34
F0.0837707816583391
sI35
F0.16666666666666666
sI36
F0.09186304243492507
sI43
F0.2886751345948129
sI47
F0.0959294219086619
sI50
F0.1203858530857692
sI52
F0.28005601680560194
sI53
F0.4082482904638631
sI55
F0.20412414523193154
sI58
F0.06900655593423542
sI61
F0.20412414523193154
sI62
F0.10814761408717503
sI63
F0.23570226039551587
sI72
F0.23570226039551587
sI76
F0.16666666666666666
sI79
F0.1543033499620919
sI81
F0.16666666666666666
sI85
F0.11322770341445956
sI86
F0.12909944487358055
sI92
F0.16666666666666666
sI94
F0.11322770341445956
sI95
F0.06900655593423542
sI100
F0.2721655269759087
ssI84
g0
(tRp76
I17
F0.1270001270001905
sI58
F0.1690308509457033
sI36
F0.1125087900926024
sI21
F0.13483997249264842
ssI85
g0
(tRp77
I1
F0.16446845656149195
sI2
F0.15534712747612348
sI3
F0.11322770341445956
sI6
F0.16230686829029886
sI10
F0.034401045807689073
sI13
F0.12403473458920847
sI14
F0.06933752452815364
sI16
F0.13074409009212268
sI17
F0.14089399073526937
sI18
F0.15384615384615385
sI21
F0.11219363880101485
sI22
F0.06933752452815364
sI25
F0.26711222531767115
sI26
F0.1386750490563073
sI28
F0.2864459496157732
sI29
F0.24906774069335894
sI30
F0.4902903378454601
sI32
F0.16012815380508713
sI34
F0.11382207864489444
sI35
F0.3396831102433787
sI36
F0.2184302677950038
sI39
F0.13977131156292244
sI41
F0.1345345587992625
sI43
F0.19611613513818404
sI45
F0.16984155512168936
sI46
F0.2773500981126146
sI47
F0.13034241759113435
sI49
F0.2773500981126146
sI50
F0.14312564351916787
sI52
F0.19026059766179762
sI55
F0.2773500981126146
sI57
F0.1386750490563073
sI58
F0.09376144618769908
sI62
F0.03673591791853225
sI68
F0.3721042037676254
sI69
F0.06933752452815364
sI72
F0.16012815380508713
sI76
F0.11322770341445956
sI77
F0.19611613513818404
sI78
F0.24806946917841693
sI81
F0.11322770341445956
sI82
F0.11322770341445956
sI86
F0.17541160386140586
sI92
F0.11322770341445956
sI94
F0.15384615384615385
sI97
F0.22645540682891913
sI99
F0.3922322702763681
sI100
F0.1849000654084097
ssI86
g0
(tRp78
I1
F0.09376144618769908
sI2
F0.1328422328310143
sI3
F0.06454972243679027
sI5
F0.1978141420187361
sI6
F0.2220699630592816
sI7
F0.06454972243679027
sI8
F0.15811388300841897
sI10
F0.03922322702763681
sI11
F0.08687444855261388
sI13
F0.1414213562373095
sI16
F0.14907119849998599
sI17
F0.16064386578049977
sI18
F0.08770580193070293
sI19
F0.07254762501100116
sI21
F0.04264014327112208
sI22
F0.15811388300841897
sI23
F0.1
sI24
F0.08770580193070293
sI25
F0.11420804814403214
sI26
F0.15811388300841897
sI28
F0.08164965809277261
sI30
F0.11180339887498948
sI32
F0.15649215928719032
sI34
F0.03244428422615251
sI36
F0.213470420089446
sI39
F0.07968190728895957
sI41
F0.07669649888473704
sI43
F0.22360679774997896
sI45
F0.12909944487358055
sI46
F0.15811388300841897
sI47
F0.0743066106927105
sI48
F0.07905694150420949
sI49
F0.31622776601683794
sI50
F0.023312620206007845
sI52
F0.10846522890932808
sI55
F0.15811388300841897
sI57
F0.15811388300841897
sI58
F0.05345224838248487
sI60
F0.10540925533894598
sI61
F0.31622776601683794
sI62
F0.1675415633166782
sI63
F0.3651483716701107
sI68
F0.1414213562373095
sI70
F0.06741998624632421
sI76
F0.2581988897471611
sI77
F0.22360679774997896
sI78
F0.1414213562373095
sI79
F0.35856858280031806
sI81
F0.12909944487358055
sI82
F0.12909944487358055
sI85
F0.17541160386140586
sI88
F0.1414213562373095
sI89
F0.33541019662496846
sI92
F0.2581988897471611
sI94
F0.08770580193070293
sI95
F0.16035674514745463
sI99
F0.22360679774997896
sI100
F0.31622776601683794
ssI88
g0
(tRp79
I1
F0.033149677206589796
sI3
F0.09128709291752768
sI6
F0.052342392259021375
sI11
F0.12285902336679023
sI14
F0.11180339887498948
sI16
F0.05270462766947299
sI17
F0.05679618342470648
sI18
F0.12403473458920847
sI19
F0.10259783520851541
sI24
F0.12403473458920847
sI25
F0.05383819020581655
sI32
F0.03688555567816588
sI41
F0.10846522890932808
sI50
F0.03296902366978935
sI52
F0.07669649888473704
sI63
F0.2581988897471611
sI66
F0.4472135954999579
sI69
F0.11180339887498948
sI70
F0.09534625892455924
sI74
F0.18257418583505536
sI76
F0.18257418583505536
sI86
F0.1414213562373095
ssI89
g0
(tRp80
I1
F0.07862136275414387
sI2
F0.2475368857441686
sI5
F0.07372097807744857
sI6
F0.206901472150592
sI7
F0.07216878364870323
sI8
F0.35355339059327373
sI9
F0.15811388300841897
sI10
F0.08770580193070293
sI11
F0.14569287935358963
sI16
F0.125
sI17
F0.04490132550669373
sI18
F0.09805806756909202
sI20
F0.4082482904638631
sI21
F0.04767312946227962
sI22
F0.2651650429449553
sI23
F0.22360679774997896
sI24
F0.19611613513818404
sI25
F0.04256282653793743
sI27
F0.25
sI31
F0.08574929257125441
sI32
F0.08748177652797064
sI34
F0.03627381250550058
sI36
F0.11933359262635951
sI39
F0.0445435403187374
sI45
F0.07216878364870323
sI47
F0.11076975512434226
sI48
F0.08838834764831843
sI50
F0.05212860351426869
sI58
F0.05976143046671968
sI61
F0.35355339059327373
sI62
F0.1404878717372541
sI65
F0.25
sI70
F0.07537783614444091
sI71
F0.25
sI74
F0.14433756729740646
sI79
F0.4008918628686366
sI86
F0.33541019662496846
sI95
F0.23904572186687872
ssI92
g0
(tRp81
I1
F0.12104550653376049
sI2
F0.05716619504750295
sI3
F0.08333333333333333
sI5
F0.17025130615174972
sI7
F0.08333333333333333
sI10
F0.05063696835418333
sI12
F0.18257418583505536
sI13
F0.18257418583505536
sI14
F0.10206207261596577
sI16
F0.14433756729740643
sI17
F0.1555427542095638
sI21
F0.055048188256318034
sI22
F0.20412414523193154
sI25
F0.24573659359149524
sI26
F0.4082482904638631
sI28
F0.10540925533894598
sI29
F0.1466471150213533
sI30
F0.14433756729740646
sI32
F0.16835875742536846
sI34
F0.04188539082916955
sI36
F0.18372608486985015
sI39
F0.10286889997472794
sI43
F0.14433756729740646
sI45
F0.16666666666666666
sI46
F0.20412414523193154
sI47
F0.0959294219086619
sI48
F0.10206207261596577
sI49
F0.4082482904638631
sI50
F0.1203858530857692
sI52
F0.21004201260420147
sI55
F0.20412414523193154
sI57
F0.20412414523193154
sI58
F0.06900655593423542
sI61
F0.20412414523193154
sI62
F0.10814761408717503
sI63
F0.23570226039551587
sI68
F0.18257418583505536
sI73
F0.12909944487358055
sI76
F0.3333333333333333
sI77
F0.2886751345948129
sI78
F0.3651483716701107
sI79
F0.1543033499620919
sI81
F0.16666666666666666
sI82
F0.16666666666666666
sI85
F0.11322770341445956
sI86
F0.2581988897471611
sI94
F0.11322770341445956
sI95
F0.06900655593423542
sI99
F0.2886751345948129
sI100
F0.13608276348795434
ssI93
g0
(tRp82
I1
F0.07412493166611012
sI12
F0.4472135954999579
sI15
F1.0
sI17
F0.1270001270001905
sI50
F0.07372097807744857
sI29
F0.1796053020267749
ssI94
g0
(tRp83
I1
F0.14390989949130545
sI2
F0.1165103456070926
sI5
F0.11566298639324804
sI6
F0.09738412097417933
sI7
F0.05661385170722978
sI10
F0.034401045807689073
sI11
F0.15238786355189185
sI13
F0.12403473458920847
sI14
F0.1386750490563073
sI16
F0.2288021576612147
sI17
F0.21134098610290408
sI19
F0.06362847629757777
sI21
F0.2243872776020297
sI22
F0.20801257358446093
sI24
F0.15384615384615385
sI25
F0.20033416898825335
sI27
F0.19611613513818404
sI28
F0.1432229748078866
sI29
F0.14944064441601537
sI30
F0.19611613513818404
sI31
F0.1345345587992625
sI32
F0.16012815380508713
sI34
F0.17073311796734164
sI35
F0.11322770341445956
sI36
F0.28083891573643344
sI39
F0.10482848367219183
sI41
F0.06726727939963124
sI43
F0.29417420270727607
sI45
F0.16984155512168936
sI46
F0.2773500981126146
sI47
F0.1520661538563234
sI49
F0.2773500981126146
sI50
F0.16357216402190614
sI52
F0.19026059766179762
sI55
F0.2773500981126146
sI57
F0.2773500981126146
sI58
F0.09376144618769908
sI59
F0.2773500981126146
sI60
F0.09245003270420485
sI61
F0.1386750490563073
sI62
F0.11020775375559676
sI68
F0.24806946917841693
sI69
F0.1386750490563073
sI70
F0.05913123959890826
sI71
F0.19611613513818404
sI74
F0.11322770341445956
sI76
F0.11322770341445956
sI77
F0.19611613513818404
sI78
F0.12403473458920847
sI80
F0.1386750490563073
sI82
F0.11322770341445956
sI85
F0.15384615384615385
sI86
F0.08770580193070293
sI92
F0.11322770341445956
sI99
F0.19611613513818404
sI100
F0.1849000654084097
ssI95
g0
(tRp84
I1
F0.20047040441303524
sI2
F0.2130214807490179
sI3
F0.10350983390135314
sI4
F0.1690308509457033
sI5
F0.17622684421256035
sI6
F0.2769699058871257
sI7
F0.13801311186847084
sI9
F0.30237157840738177
sI10
F0.27255405754769874
sI11
F0.27861807612754325
sI12
F0.07559289460184544
sI13
F0.07559289460184544
sI14
F0.08451542547285165
sI16
F0.11952286093343938
sI17
F0.2576032744446551
sI18
F0.04688072309384954
sI19
F0.038778336716474064
sI20
F0.19518001458970666
sI21
F0.09116846116771037
sI22
F0.2958039891549808
sI23
F0.16035674514745463
sI25
F0.14244246232238394
sI26
F0.08451542547285165
sI27
F0.11952286093343936
sI28
F0.04364357804719848
sI29
F0.060717674071891624
sI30
F0.05976143046671968
sI31
F0.20498001542269695
sI32
F0.20912144420325712
sI34
F0.1040531963428944
sI36
F0.17115710875401688
sI39
F0.191662969499982
sI40
F0.08451542547285165
sI45
F0.06900655593423542
sI47
F0.2383113246724421
sI48
F0.1267731382092775
sI50
F0.1370723162267874
sI52
F0.057977103565244846
sI54
F0.23904572186687872
sI58
F0.05714285714285714
sI61
F0.253546276418555
sI62
F0.22388683141982252
sI63
F0.09759000729485333
sI70
F0.07207499701564471
sI71
F0.11952286093343936
sI73
F0.05345224838248487
sI74
F0.13801311186847084
sI76
F0.06900655593423542
sI79
F0.25555062599997597
sI81
F0.06900655593423542
sI82
F0.06900655593423542
sI86
F0.16035674514745463
sI89
F0.23904572186687872
sI92
F0.06900655593423542
sI100
F0.1690308509457033
ssI97
g0
(tRp85
I2
F0.05716619504750295
sI6
F0.04778184825674966
sI14
F0.20412414523193154
sI16
F0.09622504486493763
sI17
F0.05184758473652126
sI18
F0.11322770341445956
sI25
F0.04914731871829905
sI26
F0.20412414523193154
sI28
F0.10540925533894598
sI29
F0.1466471150213533
sI30
F0.14433756729740646
sI32
F0.033671751485073696
sI34
F0.0837707816583391
sI35
F0.16666666666666666
sI36
F0.09186304243492507
sI39
F0.05143444998736397
sI41
F0.09901475429766744
sI45
F0.08333333333333333
sI47
F0.12790589587821588
sI50
F0.0601929265428846
sI58
F0.06900655593423542
sI68
F0.18257418583505536
sI70
F0.08703882797784893
sI72
F0.23570226039551587
sI81
F0.16666666666666666
sI85
F0.22645540682891913
ssI99
g0
(tRp86
I1
F0.10482848367219183
sI2
F0.09901475429766744
sI6
F0.0827605888602368
sI13
F0.31622776601683794
sI16
F0.08333333333333333
sI21
F0.09534625892455924
sI22
F0.17677669529663687
sI25
F0.17025130615174972
sI28
F0.18257418583505536
sI30
F0.25
sI32
F0.05832118435198043
sI36
F0.159111456835146
sI39
F0.1781741612749496
sI43
F0.25
sI45
F0.2886751345948129
sI46
F0.35355339059327373
sI47
F0.05538487756217113
sI49
F0.7071067811865475
sI50
F0.10425720702853739
sI52
F0.12126781251816648
sI55
F0.35355339059327373
sI57
F0.35355339059327373
sI68
F0.31622776601683794
sI76
F0.2886751345948129
sI77
F0.5
sI78
F0.31622776601683794
sI85
F0.3922322702763681
sI86
F0.22360679774997896
sI92
F0.2886751345948129
sI94
F0.19611613513818404
ssI100
g0
(tRp87
I1
F0.12354155277685021
sI2
F0.04667600280093366
sI3
F0.06804138174397717
sI5
F0.13900960937138318
sI6
F0.23408229439226114
sI8
F0.16666666666666666
sI11
F0.18314741859825204
sI14
F0.08333333333333333
sI16
F0.15713484026367722
sI17
F0.16933350266692068
sI21
F0.1797866299901979
sI22
F0.08333333333333333
sI23
F0.10540925533894598
sI25
F0.24077170617153842
sI26
F0.16666666666666666
sI28
F0.08606629658238704
sI29
F0.05986843400892496
sI30
F0.11785113019775793
sI31
F0.16169041669088866
sI32
F0.1649572197684645
sI34
F0.10259783520851541
sI35
F0.13608276348795434
sI36
F0.18751465015433733
sI40
F0.16666666666666666
sI43
F0.11785113019775793
sI47
F0.07832604499879572
sI50
F0.12286829679574762
sI52
F0.2286647801900118
sI55
F0.16666666666666666
sI58
F0.1126872339638022
sI61
F0.16666666666666666
sI62
F0.17660431427533918
sI63
F0.19245008972987526
sI70
F0.07106690545187015
sI76
F0.13608276348795434
sI79
F0.2519763153394848
sI81
F0.13608276348795434
sI82
F0.2721655269759087
sI85
F0.1849000654084097
sI86
F0.31622776601683794
sI92
F0.13608276348795434
sI94
F0.1849000654084097
sI95
F0.1690308509457033
ss.