(lp0
F0.3
aF0.5
aF0.3125
aF0.2222222222222222
aF0.16666666666666666
aF0.47058823529411764
aF0.2903225806451613
aF0.25
aF0.16666666666666666
aF0.11494252873563218
aF1.0
aF0.10714285714285714
aF0.13157894736842105
aF0.5
aF0.0
aF0.10416666666666667
aF0.7142857142857143
aF0.0
aF0.3333333333333333
aF0.0625
aF0.4
aF0.13793103448275862
aF0.42857142857142855
aF0.6
aF0.20930232558139536
aF0.0
aF0.2857142857142857
aF0.375
aF0.07692307692307693
aF0.125
aF0.11764705882352941
aF0.75
aF0.5
aF0.16129032258064516
aF0.0
aF0.16393442622950818
aF0.5
aF0.056179775280898875
aF0.12345679012345678
aF0.7692307692307693
aF0.062111801242236024
aF0.6666666666666666
aF0.17857142857142858
aF0.6666666666666666
aF0.17857142857142858
aF0.5384615384615384
aF0.18518518518518517
aF0.09195402298850575
aF0.16666666666666666
aF0.5
aF0.2857142857142857
aF0.2222222222222222
aF0.0
aF0.055248618784530384
aF0.17142857142857143
aF0.15384615384615385
aF0.09803921568627451
aF0.3333333333333333
aF0.3125
aF0.09183673469387756
aF0.9090909090909091
aF1.0
aF0.3333333333333333
aF0.3333333333333333
aF0.16666666666666666
aF0.2222222222222222
aF0.20833333333333334
aF0.2222222222222222
aF0.5882352941176471
aF0.21739130434782608
aF0.6153846153846154
aF0.2
aF0.14893617021276595
aF0.19047619047619047
aF0.22580645161290322
aF0.5
aF0.2
aF0.6
aF0.20512820512820512
aF0.4
aF0.0
aF0.2962962962962963
aF0.2222222222222222
aF0.36363636363636365
aF0.05555555555555555
aF0.15384615384615385
aF1.0
aF0.3333333333333333
aF0.3333333333333333
aF0.45454545454545453
aF0.42857142857142855
aF0.19047619047619047
aF0.11764705882352941
aF0.38461538461538464
aF1.0
aF0.5
aF0.6666666666666666
aF0.19607843137254902
aF0.0
aF0.0
aF0.14285714285714285
aF0.11428571428571428
aF1.0
aF0.3
aF0.75
aF0.3333333333333333
aF0.05952380952380952
aF0.16666666666666666
aF0.22857142857142856
aF1.0
aF0.11904761904761904
aF0.4375
aF0.07692307692307693
aF1.0
aF0.09375
aF1.0
aF0.17647058823529413
aF0.07518796992481203
aF0.2222222222222222
aF0.5
aF0.0
aF0.25
aF0.6666666666666666
aF0.6
aF0.0
aF0.0
aF0.14285714285714285
aF0.16666666666666666
aF1.0
aF0.4
aF0.14285714285714285
aF0.16666666666666666
aF1.0
aF0.1125
aF0.14545454545454545
aF0.10344827586206896
aF0.2
aF1.0
aF0.25
aF0.17543859649122806
aF1.0
aF0.14492753623188406
aF0.2
aF0.375
aF1.0
aF0.375
aF1.0
aF0.18181818181818182
aF0.0
aF1.0
aF0.2857142857142857
aF0.2857142857142857
aF0.18867924528301888
aF0.18518518518518517
aF0.7692307692307693
aF0.17857142857142858
aF0.8571428571428571
aF0.8
aF0.47058823529411764
aF1.0
aF0.25
aF0.7692307692307693
aF0.15789473684210525
aF0.3333333333333333
aF0.3333333333333333
aF0.0
aF0.20833333333333334
aF0.4444444444444444
aF0.10869565217391304
aF0.0
aF1.0
aF1.0
aF1.0
aF0.0
aF0.37037037037037035
aF0.06818181818181818
aF0.0
aF0.5
aF1.0
aF0.6666666666666666
aF0.5384615384615384
aF1.0
aF0.2608695652173913
aF0.1875
aF0.25
aF0.28
aF0.4444444444444444
aF0.18181818181818182
aF0.0
aF0.3333333333333333
aF0.16666666666666666
aF1.0
aF0.75
aF0.3225806451612903
aF0.0
aF0.45454545454545453
aF0.3684210526315789
aF0.05291005291005291
aF0.10638297872340426
aF0.03773584905660377
aF0.3333333333333333
aF1.0
aF0.13333333333333333
aF0.05194805194805195
aF0.07042253521126761
aF1.0
aF0.3333333333333333
aF0.5
aF0.3103448275862069
aF1.0
aF0.6
aF0.20833333333333334
aF0.25
aF0.25925925925925924
aF0.25
aF0.5
aF0.17543859649122806
aF0.13333333333333333
aF0.42857142857142855
aF0.1794871794871795
aF0.125
aF0.14035087719298245
aF0.46153846153846156
aF1.0
aF0.6666666666666666
aF0.19047619047619047
aF1.0
aF1.0
aF0.8181818181818182
aF0.0
aF0.11666666666666667
aF0.2692307692307692
aF1.0
aF0.11538461538461539
aF1.0
aF0.22727272727272727
aF0.0
aF0.0
aF1.0
aF0.5263157894736842
aF0.20833333333333334
aF0.30434782608695654
aF1.0
aF0.0
aF0.0
aF0.2
aF0.6666666666666666
aF0.3333333333333333
aF0.75
aF0.16666666666666666
aF0.2857142857142857
aF0.0
aF1.0
aF0.5
aF0.25
aF0.09574468085106383
aF0.1111111111111111
aF0.1951219512195122
aF0.5
aF0.0
aF0.0
aF0.0
aF0.23076923076923078
aF1.0
aF0.37037037037037035
aF0.6666666666666666
aF0.1111111111111111
aF0.0
aF1.0
aF0.0
aF0.16393442622950818
aF0.1794871794871795
aF0.14705882352941177
aF0.6666666666666666
aF0.16666666666666666
aF0.125
aF0.6666666666666666
aF0.1724137931034483
aF0.36363636363636365
aF0.12658227848101267
aF0.38095238095238093
aF0.28
aF0.1935483870967742
aF0.1590909090909091
aF0.5
aF0.4444444444444444
aF0.10126582278481013
aF0.12658227848101267
aF0.05154639175257732
aF0.26666666666666666
aF0.5555555555555556
aF0.8
aF0.3125
aF0.16666666666666666
aF0.0
aF0.06493506493506493
aF0.45454545454545453
aF0.14285714285714285
aF0.3076923076923077
aF0.32142857142857145
aF0.6666666666666666
aF0.03717472118959108
aF0.07092198581560284
aF0.0
aF0.0
aF0.19230769230769232
aF0.0847457627118644
aF0.17307692307692307
aF1.0
aF0.0
aF0.0
aF0.07751937984496124
aF0.07692307692307693
aF0.4375
aF0.053763440860215055
aF0.0625
aF0.0
aF0.2916666666666667
aF0.8181818181818182
aF0.0
aF0.1
aF1.0
aF0.6
aF0.1875
aF0.6
aF0.0
aF0.6666666666666666
aF0.3333333333333333
aF0.11904761904761904
aF0.6666666666666666
aF0.3333333333333333
aF0.34615384615384615
aF0.15151515151515152
aF0.10526315789473684
aF1.0
aF0.6666666666666666
aF0.1
aF0.12195121951219512
aF0.2647058823529412
aF0.05128205128205128
aF0.18181818181818182
aF0.05235602094240838
aF1.0
aF0.75
aF0.3333333333333333
aF0.13157894736842105
aF0.1891891891891892
aF1.0
aF0.0
aF0.18867924528301888
aF1.0
aF1.0
aF0.75
aF0.0
aF0.24390243902439024
aF0.14285714285714285
aF0.12962962962962962
aF0.3333333333333333
aF0.2857142857142857
aF0.13333333333333333
aF0.6666666666666666
aF0.15789473684210525
aF0.14285714285714285
aF0.38461538461538464
aF0.43478260869565216
aF0.2608695652173913
aF0.47619047619047616
aF1.0
aF0.2631578947368421
aF0.18604651162790697
aF0.30303030303030304
aF0.4
aF0.07462686567164178
aF0.38461538461538464
aF0.3103448275862069
aF0.2692307692307692
aF0.4
aF0.06097560975609756
aF0.125
aF0.0847457627118644
aF0.2
aF0.8333333333333334
aF0.0
aF0.14814814814814814
aF0.2
aF0.125
aF0.6666666666666666
aF0.17857142857142858
aF0.15555555555555556
aF0.125
aF0.8333333333333334
aF0.16
aF0.42857142857142855
aF0.3333333333333333
aF0.09473684210526316
aF0.25
aF0.2777777777777778
aF0.0
aF0.1568627450980392
aF0.2857142857142857
aF1.0
aF0.11904761904761904
aF0.5
aF0.0
aF0.06944444444444445
aF0.136986301369863
aF1.0
aF0.14705882352941177
aF0.5
aF0.18421052631578946
aF0.2727272727272727
aF0.3333333333333333
aF0.1875
aF0.0
aF0.15
aF0.15151515151515152
aF0.5
aF0.11594202898550725
aF0.03676470588235294
aF1.0
aF1.0
aF0.6
aF0.5
aF0.3333333333333333
aF0.2127659574468085
aF0.23076923076923078
aF0.625
aF0.36
aF0.14285714285714285
aF0.1794871794871795
aF0.0
aF0.3333333333333333
aF0.0
aF0.15384615384615385
a.