(lp0
F0.3
aF0.5
aF0.3125
aF0.2222222222222222
aF0.16666666666666666
aF0.47058823529411764
aF0.2903225806451613
aF0.25
aF0.16666666666666666
aF0.11494252873563218
aF1.0
aF0.10714285714285714
aF0.13157894736842105
aF0.5
aF0.0
aF0.10416666666666667
aF0.7142857142857143
aF0.0
aF0.3333333333333333
aF0.0625
aF0.4
aF0.13793103448275862
aF0.42857142857142855
aF0.6
aF0.20930232558139536
aF0.0
aF0.2857142857142857
aF0.375
aF0.07692307692307693
aF0.125
aF0.11764705882352941
aF0.75
aF0.5
aF0.16129032258064516
aF0.0
aF0.16393442622950818
aF0.5
aF0.056179775280898875
aF0.12345679012345678
aF0.7692307692307693
aF0.062111801242236024
aF0.6666666666666666
aF0.17857142857142858
aF0.6666666666666666
aF0.17857142857142858
aF0.5384615384615384
aF0.18518518518518517
aF0.09195402298850575
aF0.16666666666666666
aF0.5
aF0.2857142857142857
aF0.2222222222222222
aF0.0
aF0.055248618784530384
aF0.17142857142857143
aF0.15384615384615385
aF0.09803921568627451
aF0.3333333333333333
aF0.3125
aF0.09183673469387756
aF0.9090909090909091
aF1.0
aF0.3333333333333333
aF0.3333333333333333
aF0.16666666666666666
aF0.2222222222222222
aF0.20833333333333334
aF0.2222222222222222
aF0.5882352941176471
aF0.21739130434782608
aF0.6153846153846154
aF0.2
aF0.14893617021276595
aF0.19047619047619047
aF0.22580645161290322
aF0.5
aF0.2
aF0.6
aF0.20512820512820512
aF0.4
aF0.0
aF0.2962962962962963
aF0.2222222222222222
aF0.36363636363636365
aF0.05555555555555555
aF0.15384615384615385
aF1.0
aF0.3333333333333333
aF0.3333333333333333
aF0.45454545454545453
a.