(lp0
F0.2
aF0.5
aF0.125
aF0.2222222222222222
aF0.16666666666666666
aF0.058823529411764705
aF0.22580645161290322
aF0.5
aF0.16666666666666666
aF0.10344827586206896
aF0.0
aF0.047619047619047616
aF0.11842105263157894
aF0.16666666666666666
aF0.0
aF0.10416666666666667
aF0.5
aF0.0
aF0.3333333333333333
aF0.0625
aF0.4
aF0.10344827586206896
aF0.42857142857142855
aF0.4666666666666667
aF0.13953488372093023
aF0.0
aF0.14285714285714285
aF0.25
aF0.08974358974358974
aF0.125
aF0.058823529411764705
aF0.5
aF0.5
aF0.12903225806451613
aF0.0
aF0.11475409836065574
aF0.5
aF0.056179775280898875
aF0.1111111111111111
aF0.3076923076923077
aF0.055900621118012424
aF0.6666666666666666
aF0.14285714285714285
aF0.6666666666666666
aF0.17857142857142858
aF0.23076923076923078
aF0.037037037037037035
aF0.08045977011494253
aF0.0
aF0.4166666666666667
aF0.14285714285714285
aF0.037037037037037035
aF0.0
aF0.055248618784530384
aF0.17142857142857143
aF0.11538461538461539
aF0.09803921568627451
aF0.3333333333333333
aF0.3125
aF0.08163265306122448
aF0.6363636363636364
aF0.5
aF0.0
aF0.3333333333333333
aF0.16666666666666666
aF0.2222222222222222
aF0.20833333333333334
aF0.14814814814814814
aF0.35294117647058826
aF0.21739130434782608
aF0.6153846153846154
aF0.1
aF0.14893617021276595
aF0.14285714285714285
aF0.1935483870967742
aF0.5
aF0.2
aF0.6
aF0.1282051282051282
aF0.3
aF0.0
aF0.18518518518518517
aF0.1111111111111111
aF0.2727272727272727
aF0.0
aF0.1346153846153846
aF1.0
aF0.3333333333333333
aF0.16666666666666666
aF0.5454545454545454
aF0.2857142857142857
aF0.14285714285714285
aF0.17647058823529413
aF0.38461538461538464
aF0.5
aF0.0
aF0.6666666666666666
aF0.17647058823529413
aF0.0
aF0.0
aF0.14285714285714285
aF0.11428571428571428
aF1.0
aF0.3
aF0.5
aF0.3333333333333333
aF0.05357142857142857
aF0.0
aF0.14285714285714285
aF0.3333333333333333
aF0.10714285714285714
aF0.4375
aF0.07692307692307693
aF0.0
aF0.09375
aF0.0
aF0.17647058823529413
aF0.06766917293233082
aF0.16666666666666666
aF0.3
aF0.0
aF0.25
aF0.0
aF0.4
aF0.0
aF0.0
aF0.14285714285714285
aF0.16666666666666666
aF0.0
aF0.4
aF0.14285714285714285
aF0.16666666666666666
aF0.0
aF0.075
aF0.05454545454545454
aF0.10344827586206896
aF0.0
aF0.75
aF0.25
aF0.10526315789473684
aF0.5
aF0.10144927536231885
aF0.13333333333333333
aF0.375
aF0.0
aF0.3125
aF1.0
aF0.12727272727272726
aF0.0
aF0.14285714285714285
aF0.3333333333333333
aF0.0
aF0.1509433962264151
aF0.18518518518518517
aF0.5384615384615384
aF0.17857142857142858
aF0.2857142857142857
aF0.0
aF0.23529411764705882
aF0.5
aF0.25
aF0.7692307692307693
aF0.13157894736842105
aF0.3333333333333333
aF0.0
aF0.0
aF0.16666666666666666
aF0.4444444444444444
aF0.10869565217391304
aF0.0
aF1.0
aF0.8571428571428571
aF0.8
aF0.0
aF0.25925925925925924
aF0.045454545454545456
aF0.0
aF0.5
aF1.0
aF0.6666666666666666
aF0.38461538461538464
aF1.0
aF0.2608695652173913
aF0.125
aF0.25
aF0.2
aF0.3333333333333333
aF0.09090909090909091
aF0.5
aF0.0
aF0.16666666666666666
aF0.0
aF0.5
aF0.2903225806451613
aF1.0
aF0.36363636363636365
aF0.21052631578947367
aF0.05291005291005291
aF0.07446808510638298
aF0.03773584905660377
aF0.2222222222222222
aF0.3333333333333333
aF0.12
aF0.05194805194805195
aF0.07042253521126761
aF1.0
aF0.3333333333333333
aF0.5
aF0.20689655172413793
aF0.0
aF0.0
aF0.16666666666666666
aF0.16666666666666666
aF0.2222222222222222
aF0.125
aF0.16666666666666666
aF0.07017543859649122
aF0.06666666666666667
aF0.42857142857142855
aF0.10256410256410256
aF0.125
aF0.14035087719298245
aF0.3076923076923077
aF1.0
aF0.5
aF0.19047619047619047
aF0.6666666666666666
aF1.0
aF0.45454545454545453
aF0.0
aF0.11666666666666667
aF0.3076923076923077
aF0.75
aF0.10256410256410256
aF0.4
aF0.1590909090909091
aF0.0
aF0.0
aF0.5
aF0.5263157894736842
aF0.20833333333333334
aF0.2608695652173913
aF0.5
aF0.0
aF0.0
aF0.2
aF0.0
aF0.3333333333333333
aF0.5
aF0.0
aF0.2857142857142857
aF0.0
aF0.75
aF0.25
aF0.0
aF0.07446808510638298
aF0.2222222222222222
aF0.0975609756097561
aF0.42857142857142855
aF0.0
aF0.0
aF0.0
aF0.11538461538461539
aF1.0
aF0.37037037037037035
aF0.6666666666666666
aF0.08888888888888889
aF0.0
aF1.0
aF0.0
aF0.16393442622950818
aF0.10256410256410256
aF0.14705882352941177
aF0.3333333333333333
aF0.06666666666666667
aF0.125
aF0.5833333333333334
aF0.1724137931034483
aF0.2727272727272727
aF0.11392405063291139
aF0.19047619047619047
aF0.12
aF0.0967741935483871
aF0.13636363636363635
aF0.5
aF0.4444444444444444
aF0.0759493670886076
aF0.08860759493670886
aF0.05154639175257732
aF0.3
aF0.2777777777777778
aF0.6
aF0.21875
aF0.16666666666666666
aF0.0
aF0.06493506493506493
aF0.2727272727272727
aF0.14285714285714285
aF0.38461538461538464
aF0.2857142857142857
aF0.3333333333333333
aF0.03717472118959108
aF0.07092198581560284
aF0.0
aF0.0
aF0.1346153846153846
aF0.0847457627118644
aF0.11538461538461539
aF0.5
aF0.0
aF0.0
aF0.06201550387596899
aF0.15384615384615385
aF0.4375
aF0.053763440860215055
aF0.0625
aF0.0
aF0.125
aF0.45454545454545453
aF0.0
aF0.09
aF0.0
aF0.4
aF0.125
aF0.8
aF0.0
aF0.0
aF0.6666666666666666
aF0.11904761904761904
aF0.6666666666666666
aF0.0
aF0.15384615384615385
aF0.13636363636363635
aF0.10526315789473684
aF0.0
aF0.4
aF0.1
aF0.0975609756097561
aF0.058823529411764705
aF0.05128205128205128
aF0.09090909090909091
aF0.05235602094240838
aF0.5
aF0.75
aF0.3333333333333333
aF0.09210526315789473
aF0.13513513513513514
aF0.75
aF0.0
aF0.1509433962264151
aF0.8
aF1.0
aF0.0
aF0.0
aF0.21951219512195122
aF0.0
aF0.09259259259259259
aF0.0
aF0.2
aF0.08
aF0.5
aF0.15789473684210525
aF0.0
aF0.38461538461538464
aF0.30434782608695654
aF0.21739130434782608
aF0.42857142857142855
aF0.5
aF0.18421052631578946
aF0.09302325581395349
aF0.12121212121212122
aF0.4
aF0.05970149253731343
aF0.38461538461538464
aF0.3103448275862069
aF0.19230769230769232
aF0.4
aF0.06097560975609756
aF0.125
aF0.0847457627118644
aF0.0
aF0.75
aF0.0
aF0.14814814814814814
aF0.08888888888888889
aF0.125
aF0.3333333333333333
aF0.125
aF0.044444444444444446
aF0.1875
aF0.3333333333333333
aF0.08
aF0.42857142857142855
aF0.0
aF0.06315789473684211
aF0.0
aF0.2777777777777778
aF0.0
aF0.1568627450980392
aF0.17142857142857143
aF1.0
aF0.10714285714285714
aF0.25
aF0.0
aF0.0625
aF0.1232876712328767
aF1.0
aF0.1323529411764706
aF0.0
aF0.15789473684210525
aF0.0
aF0.0
aF0.125
aF0.0
aF0.175
aF0.15151515151515152
aF0.75
aF0.08695652173913043
aF0.03676470588235294
aF0.5
aF1.0
aF0.2
aF0.5
aF0.3333333333333333
aF0.1702127659574468
aF0.15384615384615385
aF0.5625
aF0.32
aF0.0
aF0.10256410256410256
aF0.0
aF0.3333333333333333
aF0.0
aF0.23076923076923078
aF0.8333333333333334
aF0.6
aF0.5
aF0.10101010101010101
aF0.2857142857142857
aF0.7142857142857143
aF0.15873015873015872
aF0.16666666666666666
aF1.0
aF0.10714285714285714
aF0.375
aF0.05405405405405406
aF0.0
aF0.32
aF0.13513513513513514
aF0.0
aF0.18181818181818182
aF0.875
aF0.1
aF1.0
aF0.15384615384615385
aF0.75
aF0.10144927536231885
aF0.28125
aF0.6
aF0.06666666666666667
aF0.16666666666666666
aF0.18604651162790697
aF0.5
aF0.04672897196261682
aF0.3888888888888889
aF0.75
aF0.1282051282051282
aF0.5
aF0.16666666666666666
aF0.09090909090909091
aF0.5714285714285714
aF0.0684931506849315
aF0.12244897959183673
aF0.20689655172413793
aF0.5454545454545454
aF0.0
aF1.0
aF1.0
aF0.21739130434782608
aF0.0
aF0.0
aF1.0
aF0.0
aF0.25
aF0.055248618784530384
aF0.0
aF0.07092198581560284
aF0.0
aF1.0
aF0.5294117647058824
aF0.2
aF0.0
aF0.0
aF0.07042253521126761
aF0.1875
aF1.0
aF0.38461538461538464
aF0.0
aF0.0
aF0.1509433962264151
aF0.6
aF0.06818181818181818
aF0.16
aF0.125
aF0.16666666666666666
aF0.0
aF0.10869565217391304
aF0.1724137931034483
aF0.2
aF0.42857142857142855
aF0.23809523809523808
aF0.06666666666666667
aF0.5
aF0.0
aF0.0
aF0.24390243902439024
aF0.3333333333333333
aF0.5
aF0.375
aF0.0
aF0.25
aF0.08433734939759036
aF1.0
aF0.15625
aF0.0
aF0.10526315789473684
aF0.1875
aF0.08791208791208792
aF0.25
aF0.6666666666666666
aF0.20833333333333334
aF0.05291005291005291
aF0.16666666666666666
aF0.09722222222222222
aF0.17777777777777778
aF0.25
aF0.3333333333333333
aF0.15384615384615385
aF0.0
aF0.16666666666666666
aF0.42857142857142855
aF0.1111111111111111
aF0.09090909090909091
aF0.04219409282700422
aF0.0967741935483871
aF0.5
aF0.6666666666666666
aF0.0
aF0.5
aF0.13725490196078433
aF0.0
aF0.6666666666666666
aF0.5714285714285714
aF0.0
aF0.17857142857142858
aF0.10909090909090909
aF0.09090909090909091
aF0.8
aF0.5
aF0.0
aF0.3333333333333333
aF0.3333333333333333
aF0.0
aF0.0
aF0.13043478260869565
aF0.16666666666666666
aF0.2
aF0.0
aF1.0
aF0.125
aF0.5
aF0.1206896551724138
aF0.14285714285714285
aF0.25
aF0.375
aF0.0
aF0.20689655172413793
aF0.75
aF0.15625
aF1.0
aF1.0
aF0.053763440860215055
aF0.0
aF0.08737864077669903
aF0.0
aF0.3333333333333333
aF0.5
aF0.5
aF0.4444444444444444
aF0.5
aF0.45454545454545453
aF0.06802721088435375
aF0.5
aF1.0
aF0.08450704225352113
aF0.06666666666666667
aF0.15789473684210525
aF0.0
aF0.10810810810810811
aF0.5
aF0.16666666666666666
aF0.0
aF0.0
aF0.5
aF0.0
aF0.28
aF0.2
aF0.4166666666666667
aF0.2
aF0.05263157894736842
aF0.09803921568627451
aF0.21875
aF0.3333333333333333
aF0.3333333333333333
aF0.125
aF0.0
aF0.3333333333333333
aF0.0
aF0.09523809523809523
aF0.1282051282051282
aF0.05102040816326531
aF0.2222222222222222
aF0.13793103448275862
aF1.0
aF0.0
aF0.058823529411764705
aF0.5
aF0.3333333333333333
aF0.5714285714285714
aF0.0
aF0.10606060606060606
aF0.5
aF0.16666666666666666
aF0.125
aF0.06862745098039216
aF0.3333333333333333
aF0.3333333333333333
aF0.0967741935483871
aF0.09259259259259259
aF0.2222222222222222
aF0.13432835820895522
aF0.0
aF0.18867924528301888
aF0.0
aF0.06666666666666667
aF0.012422360248447204
aF0.2857142857142857
aF0.21212121212121213
aF0.1
aF0.2727272727272727
aF0.15384615384615385
aF0.2
aF0.3333333333333333
aF0.25
aF0.3076923076923077
aF0.09375
aF0.21052631578947367
aF0.0
aF0.0
aF0.05649717514124294
aF0.0
aF0.5
aF0.2
aF0.2
aF0.14285714285714285
aF0.07633587786259542
aF0.0
aF0.7692307692307693
aF0.5882352941176471
aF0.16326530612244897
aF0.12307692307692308
aF0.125
aF0.8333333333333334
aF0.0
aF0.14814814814814814
aF0.15
aF0.3333333333333333
aF0.09615384615384616
aF0.32
aF0.0
aF0.04405286343612335
aF0.06666666666666667
aF1.0
aF0.3157894736842105
aF0.0
aF0.0
aF1.0
aF0.625
aF0.5
aF0.0625
aF0.17857142857142858
aF1.0
aF0.4
aF0.2
aF0.24390243902439024
aF0.5
aF0.25
aF1.0
aF0.038461538461538464
aF0.06299212598425197
aF0.17142857142857143
aF0.25
aF0.0
aF0.5
aF0.11627906976744186
aF0.07462686567164178
aF0.1794871794871795
aF0.2564102564102564
aF0.14285714285714285
aF0.11428571428571428
aF0.75
aF0.0
aF0.125
aF0.0
aF0.4
aF0.7142857142857143
aF0.3333333333333333
aF0.1232876712328767
aF0.0
aF0.0
aF0.5
aF0.2857142857142857
aF0.058823529411764705
aF0.043668122270742356
aF0.0
aF0.0
aF0.23529411764705882
aF0.14285714285714285
aF0.2
aF0.8571428571428571
aF0.13114754098360656
aF0.04854368932038835
aF0.12987012987012986
aF0.029850746268656716
aF0.14925373134328357
aF0.4444444444444444
aF0.043478260869565216
aF0.2857142857142857
aF0.2
aF0.4166666666666667
aF0.1
aF0.11764705882352941
aF0.125
aF0.3
aF0.5714285714285714
aF0.17647058823529413
aF0.375
aF0.11363636363636363
aF0.2222222222222222
aF0.10344827586206896
aF0.3225806451612903
aF1.0
aF0.11627906976744186
aF0.25
aF0.0
aF0.0
aF0.11940298507462686
aF0.0
aF0.4
aF0.19230769230769232
aF0.0
aF0.0
aF0.5833333333333334
aF0.3333333333333333
aF0.06666666666666667
aF0.2
aF0.09259259259259259
aF1.0
aF0.10714285714285714
aF0.0
aF0.08333333333333333
aF0.2727272727272727
aF0.06369426751592357
aF0.4
aF0.125
aF0.05555555555555555
aF0.1323529411764706
aF0.5
aF0.0
aF0.17857142857142858
aF0.2222222222222222
aF0.09090909090909091
aF0.5
aF0.21052631578947367
aF0.42857142857142855
aF0.16666666666666666
aF0.5555555555555556
aF0.05263157894736842
aF0.3333333333333333
aF0.15384615384615385
aF0.1320754716981132
aF0.6666666666666666
aF1.0
aF0.4
aF0.29411764705882354
aF1.0
aF0.06666666666666667
aF0.125
aF0.2
aF0.18181818181818182
aF0.0
aF0.16666666666666666
aF1.0
aF0.16666666666666666
aF0.3333333333333333
aF0.4
aF0.11842105263157894
aF0.2
aF0.3333333333333333
aF0.05319148936170213
aF0.05434782608695652
aF0.2
aF0.2
aF0.0
aF0.05025125628140704
aF0.05921052631578947
aF0.18604651162790697
aF0.08571428571428572
aF0.125
aF0.08064516129032258
aF0.2
aF0.0
aF0.2222222222222222
aF0.25
aF0.3333333333333333
aF0.4166666666666667
aF0.5
aF0.16666666666666666
aF0.15
aF0.10909090909090909
aF0.14285714285714285
aF0.0
aF0.23255813953488372
aF0.10975609756097561
aF0.42857142857142855
aF0.5833333333333334
aF0.3333333333333333
aF0.25
aF0.2631578947368421
aF0.5
aF0.09375
aF0.0
aF0.06666666666666667
aF0.25
aF0.375
aF0.0851063829787234
aF0.13953488372093023
aF0.0
aF0.03389830508474576
aF0.5
aF0.23809523809523808
aF0.3333333333333333
aF0.125
aF0.0
aF0.6666666666666666
aF0.16981132075471697
aF0.25
aF0.3684210526315789
aF0.14705882352941177
aF0.25
aF0.0
aF0.0
aF0.03937007874015748
aF0.0
aF0.21621621621621623
aF0.0
aF0.3
aF0.13953488372093023
aF0.0
aF0.8571428571428571
aF0.047619047619047616
aF0.125
aF0.6666666666666666
a.