(lp0
F0.15
aF0.15
aF0.4
aF0.1
aF0.15
aF0.55
aF0.55
aF0.2
aF1.0
aF1.0
aF0.05
aF0.8
aF1.0
aF0.25
aF0.0
aF1.0
aF0.7
aF0.05
aF0.05
aF1.0
aF0.15
aF0.3
aF0.15
aF0.55
aF0.7
aF0.05
aF0.45
aF0.4
aF0.7
aF0.1
aF0.45
aF0.3
aF0.15
aF1.0
aF0.0
aF1.0
aF0.2
aF1.0
aF1.0
aF0.65
aF1.0
aF0.1
aF0.5
aF0.1
aF1.0
aF0.4
aF0.8
aF0.7
aF0.05
aF0.4
aF0.15
aF0.4
aF0.0
aF1.0
aF0.55
aF0.25
aF0.95
aF0.05
aF0.3
aF0.65
aF0.5
aF0.2
aF0.15
aF0.05
aF0.05
aF0.45
aF0.3
aF0.35
aF0.65
aF1.0
aF0.45
aF0.15
aF0.65
aF0.3
aF0.6
aF0.1
aF0.05
aF0.2
aF0.6
aF0.65
aF0.0
aF0.6
aF0.1
aF0.25
aF0.1
aF0.65
aF0.1
aF0.1
aF0.15
aF0.3
aF0.15
aF0.3
aF0.25
aF1.0
aF0.1
aF0.05
aF0.1
aF1.0
aF0.0
aF0.05
aF0.05
aF0.35
aF0.2
aF0.25
aF0.15
aF0.15
aF0.95
aF0.1
aF0.6
aF0.15
aF0.95
aF0.45
aF0.05
aF0.05
aF0.25
aF0.05
aF0.2
aF1.0
aF0.25
aF0.3
aF0.0
aF0.25
aF0.15
aF0.2
aF0.05
aF0.05
aF0.05
aF0.1
aF0.05
aF0.25
aF0.2
aF0.2
aF0.05
aF0.75
aF0.55
aF0.25
aF0.15
aF0.2
aF0.05
aF1.0
aF0.1
aF0.85
aF0.2
aF0.15
aF0.05
aF0.45
aF0.1
aF0.95
aF0.0
aF0.35
aF0.4
aF0.15
aF0.9
aF1.0
aF0.65
aF1.0
aF0.3
aF0.2
aF0.65
aF0.1
aF0.05
aF0.65
aF0.5
aF0.15
aF0.05
aF0.0
aF0.95
aF0.3
aF1.0
aF0.05
aF0.2
aF0.35
aF0.25
aF0.0
aF0.9
aF0.9
aF0.0
aF0.05
aF0.15
aF0.15
aF0.4
aF0.05
aF0.45
aF0.45
aF0.2
aF0.5
aF0.4
aF0.4
aF0.05
aF0.05
aF0.25
aF0.05
aF0.2
aF0.85
aF0.05
aF0.3
aF0.45
aF1.0
aF1.0
aF1.0
aF0.2
aF0.3
aF0.85
aF0.45
aF0.65
aF0.05
aF0.05
aF0.25
aF0.85
aF0.05
aF0.15
aF0.4
aF0.15
aF0.55
aF0.1
aF0.75
aF0.75
aF0.8
aF0.35
aF0.45
aF0.1
aF0.75
aF0.4
aF0.05
aF0.25
aF0.3
aF0.15
aF0.05
aF0.45
aF0.0
aF0.6
aF0.5
aF0.2
aF0.75
aF0.25
aF0.85
aF0.1
aF0.0
aF0.2
aF0.95
aF0.35
aF0.55
aF0.1
aF0.0
aF0.0
aF0.4
aF0.15
aF0.1
aF0.2
aF0.05
aF1.0
aF0.0
aF0.2
aF0.1
aF0.05
aF0.8
aF0.15
aF0.7
aF0.45
aF0.0
aF0.0
aF0.0
aF0.35
aF0.3
aF1.0
aF0.1
aF0.95
aF0.05
aF0.1
aF0.0
aF0.9
aF0.7
aF1.0
aF0.25
aF0.35
aF0.1
aF0.45
aF0.35
aF0.25
aF0.95
aF0.65
aF0.5
aF0.45
aF0.55
aF0.15
aF0.25
aF0.7
aF0.85
aF1.0
aF0.65
aF0.55
aF0.2
aF0.8
aF0.05
aF0.0
aF1.0
aF0.4
aF0.2
aF0.3
aF0.65
aF0.1
aF1.0
aF1.0
aF0.05
aF0.0
aF0.85
aF1.0
aF0.5
aF0.1
aF0.0
aF0.15
aF1.0
aF0.2
aF0.45
aF1.0
aF0.4
aF0.0
aF0.55
aF0.5
aF0.0
aF0.9
aF0.05
aF0.15
aF0.15
aF0.25
aF0.05
aF0.1
aF0.1
aF1.0
aF0.3
aF0.05
aF0.6
aF1.0
aF1.0
aF0.05
aF0.6
aF0.1
aF0.9
aF0.55
aF1.0
aF0.9
aF1.0
aF0.1
aF0.15
aF0.05
aF1.0
aF0.5
aF0.2
aF0.1
aF1.0
aF0.25
aF0.2
aF0.15
aF0.0
aF1.0
aF0.05
aF0.5
aF0.05
aF0.8
aF0.8
aF0.2
aF0.15
aF0.05
aF1.0
aF0.9
aF0.4
aF0.85
aF0.1
aF0.8
aF0.6
aF0.95
aF0.15
aF1.0
aF1.0
aF0.6
aF0.4
aF0.35
aF1.0
aF0.25
aF1.0
aF0.05
aF0.6
aF0.05
aF0.9
aF0.8
aF0.05
aF0.1
aF1.0
aF0.55
aF0.25
aF0.3
aF0.4
aF0.6
aF0.1
aF0.9
aF0.1
aF1.0
aF0.05
aF0.65
aF0.9
aF0.35
aF1.0
aF0.15
aF0.0
aF1.0
aF1.0
aF0.05
aF1.0
aF0.05
aF0.55
aF0.25
aF0.1
aF0.25
aF0.05
aF0.55
aF0.4
aF0.1
aF0.6
aF1.0
aF0.1
aF0.05
aF0.6
aF0.25
aF0.05
aF1.0
aF0.6
aF0.75
aF0.75
aF0.2
aF0.7
aF0.0
aF0.05
aF0.0
aF0.25
a.