(lp0
F0.3
aF0.75
aF0.5
aF0.2222222222222222
aF0.25
aF0.6470588235294118
aF0.3548387096774194
aF1.0
aF0.3333333333333333
aF0.22988505747126436
aF1.0
aF0.19047619047619047
aF0.2631578947368421
aF0.8333333333333334
aF0.0
aF0.20833333333333334
aF1.0
aF0.16666666666666666
aF0.3333333333333333
aF0.125
aF0.6
aF0.20689655172413793
aF0.42857142857142855
aF0.7333333333333333
aF0.32558139534883723
aF0.3333333333333333
aF0.42857142857142855
aF0.5
aF0.1794871794871795
aF0.125
aF0.17647058823529413
aF0.75
aF0.75
aF0.3225806451612903
aF0.0
aF0.32786885245901637
aF0.6666666666666666
aF0.11235955056179775
aF0.24691358024691357
aF1.0
aF0.12422360248447205
aF0.6666666666666666
aF0.35714285714285715
aF0.6666666666666666
aF0.35714285714285715
aF0.6153846153846154
aF0.2962962962962963
aF0.16091954022988506
aF0.16666666666666666
aF0.6666666666666666
aF0.42857142857142855
aF0.2962962962962963
aF0.0
aF0.11049723756906077
aF0.3142857142857143
aF0.19230769230769232
aF0.18627450980392157
aF0.3333333333333333
aF0.375
aF0.1326530612244898
aF0.9090909090909091
aF1.0
aF0.5
aF0.3333333333333333
aF0.16666666666666666
aF0.3333333333333333
aF0.25
aF0.25925925925925924
aF0.7647058823529411
aF0.43478260869565216
aF0.6923076923076923
aF0.3
aF0.2765957446808511
aF0.2857142857142857
aF0.3870967741935484
aF0.5
aF0.2
aF0.8
aF0.3076923076923077
aF0.65
aF0.0
aF0.4444444444444444
aF0.2222222222222222
aF0.45454545454545453
aF0.1111111111111111
aF0.25
aF1.0
aF0.6666666666666666
aF0.5
aF0.5454545454545454
aF0.42857142857142855
aF0.2857142857142857
aF0.29411764705882354
aF0.7692307692307693
aF1.0
aF0.5
aF0.6666666666666666
aF0.39215686274509803
aF0.0
aF0.5
aF0.14285714285714285
aF0.2
aF1.0
aF0.5
aF0.75
aF0.3333333333333333
aF0.1130952380952381
aF0.3333333333333333
aF0.34285714285714286
aF1.0
aF0.2261904761904762
aF0.5625
aF0.07692307692307693
aF1.0
aF0.15625
aF1.0
aF0.23529411764705882
aF0.15037593984962405
aF0.2777777777777778
aF0.6
aF0.0
aF0.4166666666666667
aF1.0
aF0.8
aF0.2
aF0.5
aF0.14285714285714285
aF0.3333333333333333
aF1.0
aF0.5
aF0.2857142857142857
aF0.3333333333333333
aF1.0
aF0.1875
aF0.2
aF0.1724137931034483
aF0.3
aF1.0
aF0.25
aF0.3508771929824561
aF1.0
aF0.2463768115942029
aF0.26666666666666666
aF0.375
aF1.0
aF0.5625
aF1.0
aF0.34545454545454546
aF0.0
aF1.0
aF0.38095238095238093
aF0.42857142857142855
aF0.33962264150943394
aF0.37037037037037035
aF1.0
aF0.35714285714285715
aF0.8571428571428571
aF0.8
aF0.7647058823529411
aF1.0
aF0.25
aF1.0
aF0.2631578947368421
aF0.3333333333333333
aF0.3333333333333333
aF0.0
aF0.3958333333333333
aF0.6666666666666666
aF0.21739130434782608
aF1.0
aF1.0
aF1.0
aF1.0
aF0.0
aF0.6666666666666666
aF0.13636363636363635
aF0.0
aF0.5
aF1.0
aF1.0
aF0.6153846153846154
aF1.0
aF0.391304347826087
aF0.28125
aF0.3333333333333333
aF0.4
aF0.4444444444444444
aF0.24242424242424243
aF0.5
aF0.3333333333333333
aF0.20833333333333334
aF1.0
aF1.0
aF0.5483870967741935
aF1.0
aF0.5454545454545454
aF0.47368421052631576
aF0.10582010582010581
aF0.2127659574468085
aF0.07547169811320754
aF0.4444444444444444
aF1.0
aF0.22666666666666666
aF0.11688311688311688
aF0.18309859154929578
aF1.0
aF0.3333333333333333
aF0.8333333333333334
aF0.5862068965517241
aF1.0
aF0.6
aF0.3333333333333333
aF0.25
aF0.4074074074074074
aF0.25
aF0.8333333333333334
aF0.2631578947368421
aF0.21333333333333335
aF0.5
aF0.23076923076923078
aF0.25
aF0.2631578947368421
aF0.6153846153846154
aF1.0
aF0.8333333333333334
aF0.2857142857142857
aF1.0
aF1.0
aF0.8181818181818182
aF0.0
aF0.2
aF0.38461538461538464
aF1.0
aF0.19230769230769232
aF1.0
aF0.38636363636363635
aF0.5
aF0.0
aF1.0
aF1.0
aF0.2916666666666667
aF0.4782608695652174
aF1.0
aF0.0
aF0.0
aF0.26666666666666666
aF1.0
aF0.6666666666666666
aF1.0
aF0.16666666666666666
aF0.5714285714285714
aF0.0
aF1.0
aF0.5
aF0.25
aF0.1702127659574468
aF0.3333333333333333
aF0.34146341463414637
aF0.6428571428571429
aF0.0
aF0.0
aF0.0
aF0.2692307692307692
aF1.0
aF0.7407407407407407
aF0.6666666666666666
aF0.2111111111111111
aF0.25
aF1.0
aF0.0
aF0.29508196721311475
aF0.358974358974359
aF0.29411764705882354
aF0.8333333333333334
aF0.23333333333333334
aF0.25
aF0.75
aF0.2413793103448276
aF0.45454545454545453
aF0.24050632911392406
aF0.6190476190476191
aF0.4
aF0.2903225806451613
aF0.25
aF0.75
aF0.5555555555555556
aF0.17721518987341772
aF0.21518987341772153
aF0.10309278350515463
aF0.43333333333333335
aF0.6111111111111112
aF0.8
aF0.5
aF0.16666666666666666
aF0.0
aF0.12987012987012986
aF0.7272727272727273
aF0.19047619047619047
aF0.46153846153846156
aF0.4642857142857143
aF0.6666666666666666
aF0.07434944237918216
aF0.14184397163120568
aF0.3333333333333333
aF0.0
aF0.3269230769230769
aF0.1694915254237288
aF0.19230769230769232
aF1.0
aF0.0
aF0.42857142857142855
aF0.15503875968992248
aF0.3076923076923077
aF0.5625
aF0.10752688172043011
aF0.25
aF0.0
aF0.4583333333333333
aF0.9090909090909091
aF0.0
aF0.18
aF1.0
aF0.6
aF0.1875
aF1.0
aF1.0
aF0.6666666666666666
aF0.6666666666666666
aF0.23809523809523808
aF0.6666666666666666
aF0.3333333333333333
aF0.46153846153846156
aF0.30303030303030304
aF0.21052631578947367
aF1.0
aF0.8
aF0.2
aF0.21951219512195122
aF0.3235294117647059
aF0.10256410256410256
aF0.32727272727272727
aF0.10471204188481675
aF1.0
aF0.75
aF0.3333333333333333
aF0.2631578947368421
aF0.2702702702702703
aF1.0
aF0.5
aF0.37735849056603776
aF1.0
aF1.0
aF0.75
aF0.0
aF0.4878048780487805
aF0.14285714285714285
aF0.18518518518518517
aF0.3333333333333333
aF0.45714285714285713
aF0.21333333333333335
aF0.6666666666666666
aF0.15789473684210525
aF0.14285714285714285
aF0.7692307692307693
aF0.782608695652174
aF0.34782608695652173
aF0.8095238095238095
aF1.0
aF0.42105263157894735
aF0.27906976744186046
aF0.5757575757575758
aF0.6
aF0.14925373134328357
aF0.7692307692307693
aF0.41379310344827586
aF0.3076923076923077
aF0.4666666666666667
aF0.12195121951219512
aF0.20833333333333334
aF0.1694915254237288
aF0.2
aF1.0
aF0.14285714285714285
aF0.3333333333333333
aF0.35555555555555557
aF0.125
aF0.6666666666666666
aF0.35714285714285715
aF0.24444444444444444
aF0.3125
aF1.0
aF0.32
aF0.5714285714285714
aF0.3333333333333333
aF0.18947368421052632
aF0.5
aF0.5555555555555556
aF0.5
aF0.2549019607843137
aF0.5142857142857142
aF1.0
aF0.23809523809523808
aF0.75
aF0.0
aF0.1388888888888889
aF0.273972602739726
aF1.0
aF0.29411764705882354
aF0.5
aF0.2894736842105263
aF0.45454545454545453
aF0.3333333333333333
aF0.3125
aF0.5
aF0.275
aF0.24242424242424243
aF0.5
aF0.17391304347826086
aF0.07352941176470588
aF1.0
aF1.0
aF0.8
aF0.625
aF0.3333333333333333
aF0.425531914893617
aF0.46153846153846156
aF0.9375
aF0.6
aF0.19047619047619047
aF0.358974358974359
aF0.0
aF0.3333333333333333
aF0.0
aF0.38461538461538464
a.