(lp0
F0.03333333333333333
aF0.1
aF0.3
aF0.06666666666666667
aF0.13333333333333333
aF0.43333333333333335
aF0.43333333333333335
aF0.13333333333333333
aF0.4
aF0.9666666666666667
aF0.4666666666666667
aF0.7
aF0.16666666666666666
aF0.0
aF0.8333333333333334
aF0.2
aF0.06666666666666667
aF0.06666666666666667
aF0.9666666666666667
aF0.1
aF0.3
aF0.13333333333333333
aF0.43333333333333335
aF0.5333333333333333
aF0.03333333333333333
aF0.23333333333333334
aF0.3333333333333333
aF0.6
aF0.13333333333333333
aF0.36666666666666664
aF0.06666666666666667
aF0.13333333333333333
aF0.43333333333333335
aF0.0
aF0.7333333333333333
aF0.13333333333333333
aF1.0
aF1.0
aF0.16666666666666666
aF0.9666666666666667
aF0.06666666666666667
aF0.36666666666666664
aF0.06666666666666667
aF1.0
aF0.26666666666666666
aF0.7
aF0.4
aF0.03333333333333333
aF0.3
aF0.13333333333333333
aF0.1
aF0.0
aF1.0
aF0.4666666666666667
aF0.23333333333333334
aF0.9
aF0.1
aF0.2
aF0.6666666666666666
aF0.3333333333333333
aF0.03333333333333333
aF0.06666666666666667
aF0.03333333333333333
aF0.03333333333333333
aF0.36666666666666664
aF0.23333333333333334
aF0.3333333333333333
aF0.5
aF0.5
aF0.3333333333333333
aF0.13333333333333333
aF0.6
aF0.13333333333333333
aF0.43333333333333335
aF0.06666666666666667
aF0.06666666666666667
aF0.16666666666666666
aF0.5666666666666667
aF0.5333333333333333
aF0.0
aF0.4666666666666667
aF0.06666666666666667
aF0.16666666666666666
aF0.16666666666666666
aF0.6
aF0.06666666666666667
aF0.06666666666666667
aF0.06666666666666667
aF0.23333333333333334
aF0.1
aF0.2
aF0.1
aF0.8333333333333334
aF0.06666666666666667
aF0.03333333333333333
aF0.06666666666666667
aF0.23333333333333334
aF0.0
aF0.03333333333333333
aF0.06666666666666667
aF0.3
aF0.13333333333333333
aF0.2
aF0.1
aF0.13333333333333333
aF0.9333333333333333
aF0.06666666666666667
aF0.6
aF0.1
aF0.9333333333333333
aF0.4
aF0.13333333333333333
aF0.26666666666666666
aF0.03333333333333333
aF0.16666666666666666
aF1.0
aF0.23333333333333334
aF0.2
aF0.0
aF0.06666666666666667
aF0.1
aF0.16666666666666666
aF0.03333333333333333
aF0.03333333333333333
aF0.06666666666666667
aF0.06666666666666667
aF0.03333333333333333
aF0.13333333333333333
aF0.06666666666666667
aF0.16666666666666666
aF0.03333333333333333
aF0.6333333333333333
aF0.5333333333333333
aF0.16666666666666666
aF0.1
aF0.13333333333333333
aF0.06666666666666667
aF0.9333333333333333
aF0.06666666666666667
aF0.7666666666666667
aF0.16666666666666666
aF0.13333333333333333
aF0.03333333333333333
aF0.1
aF0.06666666666666667
aF0.3
aF0.0
aF0.23333333333333334
aF0.26666666666666666
aF0.1
aF0.4
aF1.0
aF0.43333333333333335
aF0.5
aF0.2
aF0.13333333333333333
aF0.4666666666666667
aF0.06666666666666667
aF0.03333333333333333
aF0.1
aF0.3
aF0.13333333333333333
aF0.03333333333333333
aF0.0
aF0.9
aF0.26666666666666666
aF1.0
aF0.03333333333333333
aF0.13333333333333333
aF0.23333333333333334
aF0.16666666666666666
aF0.0
aF0.3
aF0.8333333333333334
aF0.0
aF0.03333333333333333
aF0.1
aF0.1
aF0.26666666666666666
aF0.03333333333333333
aF0.3
aF0.3
aF0.16666666666666666
aF0.3
aF0.3333333333333333
aF0.36666666666666664
aF0.03333333333333333
aF0.03333333333333333
aF0.13333333333333333
aF0.03333333333333333
aF0.13333333333333333
aF0.7333333333333333
aF0.03333333333333333
aF0.23333333333333334
aF0.3
aF1.0
aF0.7666666666666667
aF0.7666666666666667
aF0.13333333333333333
aF0.03333333333333333
aF0.6
aF0.5333333333333333
aF0.5333333333333333
aF0.03333333333333333
aF0.03333333333333333
aF0.2
aF0.16666666666666666
aF0.03333333333333333
aF0.1
aF0.13333333333333333
aF0.1
aF0.3
aF0.06666666666666667
aF0.1
aF0.7
aF0.7333333333333333
aF0.23333333333333334
aF0.3333333333333333
aF0.1
aF0.6
aF0.3
aF0.13333333333333333
aF0.26666666666666666
aF0.1
aF0.03333333333333333
aF0.3333333333333333
aF0.0
aF0.36666666666666664
aF0.43333333333333335
aF0.1
aF0.7
aF0.16666666666666666
aF0.3333333333333333
aF0.06666666666666667
aF0.0
aF0.13333333333333333
aF0.6333333333333333
aF0.26666666666666666
aF0.36666666666666664
aF0.06666666666666667
aF0.0
aF0.0
aF0.4
aF0.1
aF0.03333333333333333
aF0.13333333333333333
aF0.03333333333333333
aF0.5666666666666667
aF0.03333333333333333
aF0.13333333333333333
aF0.03333333333333333
aF0.06666666666666667
aF0.7666666666666667
aF0.13333333333333333
aF0.5
aF0.3333333333333333
aF0.0
aF0.0
aF0.36666666666666664
aF0.2
aF0.9
aF0.06666666666666667
aF0.9333333333333333
aF0.1
aF0.06666666666666667
aF0.03333333333333333
aF0.8
aF0.23333333333333334
aF1.0
aF0.03333333333333333
aF0.26666666666666666
aF0.1
aF0.36666666666666664
aF0.23333333333333334
aF0.2
aF0.7
aF0.5
aF0.23333333333333334
aF0.36666666666666664
aF0.43333333333333335
aF0.1
aF0.2
aF0.6
aF0.5333333333333333
aF0.7666666666666667
aF0.3333333333333333
aF0.4
aF0.13333333333333333
aF0.6666666666666666
aF0.06666666666666667
aF0.0
aF0.9
aF0.26666666666666666
aF0.23333333333333334
aF0.23333333333333334
aF0.26666666666666666
aF0.06666666666666667
aF1.0
aF0.9666666666666667
aF0.0
aF0.0
aF0.4
aF0.9666666666666667
aF0.5
aF0.06666666666666667
aF0.0
aF0.06666666666666667
aF1.0
aF0.13333333333333333
aF0.26666666666666666
aF1.0
aF0.2
aF0.03333333333333333
aF0.4666666666666667
aF0.36666666666666664
aF0.0
aF0.8
aF0.03333333333333333
aF0.1
aF0.06666666666666667
aF0.16666666666666666
aF0.03333333333333333
aF0.06666666666666667
aF0.06666666666666667
aF0.6
aF0.23333333333333334
aF0.03333333333333333
aF0.2
aF0.9
aF1.0
aF0.03333333333333333
aF0.43333333333333335
aF0.1
aF0.3333333333333333
aF0.4666666666666667
aF1.0
aF0.8
aF0.9333333333333333
aF0.06666666666666667
aF0.13333333333333333
aF0.03333333333333333
aF0.9666666666666667
aF0.43333333333333335
aF0.13333333333333333
aF0.03333333333333333
aF0.9333333333333333
aF0.16666666666666666
aF0.03333333333333333
aF0.13333333333333333
aF0.0
aF0.9333333333333333
aF0.06666666666666667
aF0.4
aF0.03333333333333333
aF0.5
aF0.7
aF0.13333333333333333
aF0.13333333333333333
aF0.03333333333333333
aF0.8666666666666667
aF0.23333333333333334
aF0.3
aF0.7
aF0.5333333333333333
aF0.5333333333333333
aF0.7
aF0.1
aF0.7666666666666667
aF0.8666666666666667
aF0.5
aF0.3
aF0.26666666666666666
aF1.0
aF0.13333333333333333
aF0.8666666666666667
aF0.06666666666666667
aF0.4
aF0.03333333333333333
aF0.4666666666666667
aF0.6
aF0.06666666666666667
aF0.06666666666666667
aF0.9333333333333333
aF0.4
aF0.16666666666666666
aF0.2
aF0.2
aF0.5
aF0.06666666666666667
aF0.43333333333333335
aF0.0
aF0.4
aF0.03333333333333333
aF0.5333333333333333
aF0.7333333333333333
aF0.2
aF1.0
aF0.1
aF0.0
aF0.9
aF1.0
aF0.03333333333333333
aF0.3333333333333333
aF0.4
aF0.06666666666666667
aF0.06666666666666667
aF0.1
aF0.0
aF0.3
aF0.3333333333333333
aF0.06666666666666667
aF0.5666666666666667
aF1.0
aF0.03333333333333333
aF0.4666666666666667
aF0.2
aF0.03333333333333333
aF0.8333333333333334
aF0.5
aF0.4666666666666667
aF0.6333333333333333
aF0.16666666666666666
aF0.5666666666666667
aF0.0
aF0.03333333333333333
aF0.0
aF0.16666666666666666
a.