(lp0
F0.5
aF0.75
aF0.5625
aF0.2222222222222222
aF0.3333333333333333
aF0.7647058823529411
aF0.41935483870967744
aF1.0
aF0.5
aF0.3333333333333333
aF1.0
aF0.25
aF0.39473684210526316
aF0.8333333333333334
aF0.0
aF0.3125
aF1.0
aF0.3333333333333333
aF0.6666666666666666
aF0.18125
aF0.6
aF0.3103448275862069
aF0.42857142857142855
aF0.8666666666666667
aF0.37209302325581395
aF0.3333333333333333
aF0.5714285714285714
aF0.625
aF0.2564102564102564
aF0.25
aF0.21568627450980393
aF0.875
aF1.0
aF0.45161290322580644
aF0.0
aF0.47540983606557374
aF0.6666666666666666
aF0.16853932584269662
aF0.37037037037037035
aF1.0
aF0.18012422360248448
aF0.6666666666666666
aF0.39285714285714285
aF0.6666666666666666
aF0.5357142857142857
aF0.6153846153846154
aF0.3888888888888889
aF0.1724137931034483
aF0.16666666666666666
aF0.75
aF0.5714285714285714
aF0.37037037037037035
aF0.0
aF0.16574585635359115
aF0.45714285714285713
aF0.2692307692307692
aF0.2647058823529412
aF1.0
aF0.375
aF0.20408163265306123
aF0.9090909090909091
aF1.0
aF0.6666666666666666
aF0.3333333333333333
aF0.16666666666666666
aF0.4074074074074074
aF0.2916666666666667
aF0.3333333333333333
aF0.8823529411764706
aF0.6521739130434783
aF0.7692307692307693
aF0.4
aF0.3829787234042553
aF0.38095238095238093
aF0.41935483870967744
aF0.5
aF0.4
aF1.0
aF0.4358974358974359
aF0.8
aF0.0
aF0.5185185185185185
aF0.2222222222222222
aF0.45454545454545453
aF0.16666666666666666
aF0.34615384615384615
aF1.0
aF0.6666666666666666
aF0.5
aF0.6363636363636364
aF0.7142857142857143
aF0.2857142857142857
aF0.4117647058823529
aF0.9615384615384616
aF1.0
aF0.5
aF0.6666666666666666
aF0.5490196078431373
aF0.0
aF0.5
aF0.2857142857142857
aF0.2571428571428571
aF1.0
aF0.6
aF0.75
aF0.4444444444444444
aF0.16666666666666666
aF0.3333333333333333
aF0.5142857142857142
aF1.0
aF0.34523809523809523
aF0.75
aF0.3076923076923077
aF1.0
aF0.25
aF1.0
aF0.29411764705882354
aF0.22556390977443608
aF0.3333333333333333
aF0.6
aF0.0
aF0.4166666666666667
aF1.0
aF1.0
aF0.2
aF0.5
aF0.2857142857142857
aF0.3333333333333333
aF1.0
aF0.5
aF0.42857142857142855
aF0.4166666666666667
aF1.0
aF0.2375
aF0.2909090909090909
aF0.1724137931034483
aF0.5
aF1.0
aF0.5
aF0.49122807017543857
aF1.0
aF0.3333333333333333
aF0.3333333333333333
aF0.5
aF1.0
aF0.5625
aF1.0
aF0.4727272727272727
aF0.0
aF1.0
aF0.42857142857142855
aF0.42857142857142855
aF0.4528301886792453
aF0.5555555555555556
aF1.0
aF0.4642857142857143
aF0.8571428571428571
aF0.8
aF0.8235294117647058
aF1.0
aF0.25
aF1.0
aF0.3684210526315789
aF0.4444444444444444
aF0.3333333333333333
aF0.0
aF0.5625
aF0.8888888888888888
aF0.32608695652173914
aF1.0
aF1.0
aF1.0
aF1.0
aF0.0
aF0.7777777777777778
aF0.1893939393939394
aF0.0
aF0.5
aF1.0
aF1.0
aF0.6153846153846154
aF1.0
aF0.43478260869565216
aF0.40625
aF0.4166666666666667
aF0.52
aF0.5555555555555556
aF0.36363636363636365
aF0.5
aF0.3333333333333333
aF0.2916666666666667
aF1.0
aF1.0
aF0.7096774193548387
aF1.0
aF0.6363636363636364
aF0.47368421052631576
aF0.15873015873015872
aF0.3191489361702128
aF0.11320754716981132
aF0.4444444444444444
aF1.0
aF0.32
aF0.19480519480519481
aF0.22535211267605634
aF1.0
aF0.3333333333333333
aF1.0
aF0.7931034482758621
aF1.0
aF0.6
aF0.4166666666666667
aF0.25
aF0.5555555555555556
aF0.25
aF0.9444444444444444
aF0.3684210526315789
aF0.29333333333333333
aF0.5
aF0.2564102564102564
aF0.375
aF0.3508771929824561
aF0.6923076923076923
aF1.0
aF0.8333333333333334
aF0.38095238095238093
aF1.0
aF1.0
aF0.9090909090909091
aF0.0
aF0.26666666666666666
aF0.5
aF1.0
aF0.2692307692307692
aF1.0
aF0.5227272727272727
aF0.5
aF0.0
aF1.0
aF1.0
aF0.3333333333333333
aF0.4782608695652174
aF1.0
aF0.0
aF0.0
aF0.43333333333333335
aF1.0
aF0.6666666666666666
aF1.0
aF0.16666666666666666
aF0.7428571428571429
aF0.5
aF1.0
aF0.5
aF0.5
aF0.2553191489361702
aF0.3333333333333333
aF0.36585365853658536
aF0.7142857142857143
aF0.0
aF0.0
aF0.0
aF0.46153846153846156
aF1.0
aF1.0
aF0.6666666666666666
aF0.3111111111111111
aF0.75
aF1.0
aF0.2
aF0.39344262295081966
aF0.41025641025641024
aF0.4411764705882353
aF0.8333333333333334
aF0.26666666666666666
aF0.375
aF0.9166666666666666
aF0.2413793103448276
aF0.5454545454545454
aF0.3037974683544304
aF0.7142857142857143
aF0.52
aF0.3548387096774194
aF0.29545454545454547
aF0.75
aF0.7777777777777778
aF0.24050632911392406
aF0.27848101265822783
aF0.15463917525773196
aF0.4666666666666667
aF0.6666666666666666
aF1.0
aF0.625
aF0.3333333333333333
aF0.0
aF0.19480519480519481
aF0.7272727272727273
aF0.42857142857142855
aF0.5384615384615384
aF0.5
aF0.6666666666666666
aF0.11152416356877323
aF0.2127659574468085
aF0.3333333333333333
aF0.0
aF0.4423076923076923
aF0.2457627118644068
aF0.28846153846153844
aF1.0
aF0.0
aF0.42857142857142855
aF0.23255813953488372
aF0.3076923076923077
aF0.6875
aF0.16129032258064516
aF0.375
aF0.3333333333333333
aF0.5833333333333334
aF1.0
aF0.0
aF0.28
aF1.0
aF0.6
aF0.1875
aF1.0
aF1.0
aF0.6666666666666666
aF0.6666666666666666
aF0.35714285714285715
aF0.7777777777777778
aF0.3333333333333333
aF0.6153846153846154
aF0.4090909090909091
aF0.3157894736842105
aF1.0
aF0.8666666666666667
aF0.3
aF0.2804878048780488
aF0.4117647058823529
aF0.15384615384615385
aF0.43636363636363634
aF0.15706806282722513
aF1.0
aF1.0
aF0.3333333333333333
aF0.3815789473684211
aF0.35135135135135137
aF1.0
aF0.5
aF0.5283018867924528
aF1.0
aF1.0
aF1.0
aF0.0
aF0.6829268292682927
aF0.2857142857142857
aF0.24074074074074073
aF0.3333333333333333
aF0.6
aF0.28
aF0.6666666666666666
aF0.3157894736842105
aF0.14285714285714285
aF1.0
aF0.9130434782608695
aF0.391304347826087
aF1.0
aF1.0
aF0.5789473684210527
aF0.37209302325581395
aF0.7575757575757576
aF0.6
aF0.22388059701492538
aF1.0
aF0.5172413793103449
aF0.34615384615384615
aF0.5333333333333333
aF0.18292682926829268
aF0.20833333333333334
aF0.2542372881355932
aF0.4
aF1.0
aF0.14285714285714285
aF0.42592592592592593
aF0.4
aF0.125
aF0.6666666666666666
aF0.5
aF0.26666666666666666
aF0.3125
aF1.0
aF0.36
aF0.7142857142857143
aF0.3333333333333333
aF0.2631578947368421
aF0.75
aF0.8333333333333334
aF0.5
aF0.3137254901960784
aF0.6285714285714286
aF1.0
aF0.35714285714285715
aF0.75
aF0.0
aF0.20833333333333334
aF0.410958904109589
aF1.0
aF0.4411764705882353
aF1.0
aF0.3157894736842105
aF0.45454545454545453
aF0.3333333333333333
aF0.4375
aF0.5
aF0.325
aF0.3333333333333333
aF0.5
aF0.2463768115942029
aF0.11029411764705882
aF1.0
aF1.0
aF0.9333333333333333
aF0.75
aF0.6666666666666666
aF0.5319148936170213
aF0.6153846153846154
aF1.0
aF0.68
aF0.23809523809523808
aF0.46153846153846156
aF0.0
aF0.3333333333333333
aF0.0
aF0.38461538461538464
a.