(lp0
F0.25
aF0.75
aF0.5625
aF0.2222222222222222
aF0.6666666666666666
aF0.7647058823529411
aF0.41935483870967744
aF1.0
aF0.5454545454545454
aF0.3333333333333333
aF0.24561403508771928
aF0.42
aF0.8333333333333334
aF0.0
aF0.38461538461538464
aF1.0
aF0.3333333333333333
aF0.6666666666666666
aF0.18125
aF0.6
aF0.3333333333333333
aF0.8
aF0.8666666666666667
aF0.37209302325581395
aF0.3333333333333333
aF0.6363636363636364
aF0.625
aF0.28125
aF0.2857142857142857
aF0.2391304347826087
aF0.5
aF1.0
aF0.38235294117647056
aF0.0
aF0.43137254901960786
aF0.6666666666666666
aF0.18181818181818182
aF0.37037037037037035
aF1.0
aF0.19333333333333333
aF1.0
aF0.5238095238095238
aF0.6666666666666666
aF0.5357142857142857
aF0.6153846153846154
aF0.3888888888888889
aF0.1791044776119403
aF0.16666666666666666
aF0.75
aF0.5714285714285714
aF0.125
aF0.0
aF0.19607843137254902
aF0.42424242424242425
aF0.2692307692307692
aF0.2647058823529412
aF1.0
aF0.4
aF0.22988505747126436
aF0.9090909090909091
aF1.0
aF0.3333333333333333
aF0.3333333333333333
aF0.16666666666666666
aF0.4074074074074074
aF0.3181818181818182
aF0.5263157894736842
aF0.8823529411764706
aF0.5357142857142857
aF0.7692307692307693
aF0.4444444444444444
aF0.5294117647058824
aF0.3076923076923077
aF0.41935483870967744
aF0.5
aF0.4
aF1.0
aF0.4358974358974359
aF0.8
aF0.0
aF0.5185185185185185
aF0.2222222222222222
aF0.625
aF0.38461538461538464
aF0.34615384615384615
aF1.0
aF0.6666666666666666
aF0.6666666666666666
aF0.6363636363636364
aF0.42857142857142855
aF0.3157894736842105
aF0.375
aF0.9615384615384616
aF1.0
aF0.5
aF1.0
aF0.35
aF0.0
aF1.0
aF0.2857142857142857
aF0.2571428571428571
aF1.0
aF0.6
aF0.75
aF0.4444444444444444
aF0.18791946308724833
aF0.3333333333333333
aF0.5142857142857142
aF1.0
aF0.34146341463414637
aF0.75
aF0.3076923076923077
aF0.25
aF1.0
aF0.29411764705882354
aF0.22556390977443608
aF0.5384615384615384
aF0.6
aF0.0
aF0.5
aF1.0
aF1.0
aF0.2
aF1.0
aF0.5
aF0.3333333333333333
aF1.0
aF0.5714285714285714
aF0.2857142857142857
aF0.625
aF1.0
aF0.2375
aF0.2909090909090909
aF0.1724137931034483
aF0.3333333333333333
aF1.0
aF0.5
aF0.49122807017543857
aF1.0
aF0.3333333333333333
aF0.3333333333333333
aF0.5
aF1.0
aF0.3333333333333333
aF1.0
aF0.375
aF0.0
aF1.0
aF0.42105263157894735
aF0.42857142857142855
aF0.46153846153846156
aF0.5555555555555556
aF1.0
aF0.4166666666666667
aF0.8571428571428571
aF0.8
aF0.8235294117647058
aF1.0
aF0.25
aF0.42857142857142855
aF0.375
aF0.4444444444444444
aF0.3333333333333333
aF0.0
aF0.5625
aF0.8888888888888888
aF0.32608695652173914
aF1.0
aF1.0
aF1.0
aF1.0
aF0.0
aF0.47368421052631576
aF0.1937984496124031
aF0.0
aF0.5
aF1.0
aF1.0
aF0.6153846153846154
aF1.0
aF0.5
aF0.5
aF0.4166666666666667
aF0.5
aF0.5882352941176471
aF0.34375
aF0.5
aF0.3333333333333333
aF0.21052631578947367
aF1.0
aF1.0
aF0.7096774193548387
aF1.0
aF0.6363636363636364
aF0.47368421052631576
aF0.15873015873015872
aF0.30666666666666664
aF0.16083916083916083
aF0.4444444444444444
aF1.0
aF0.43902439024390244
aF0.21333333333333335
aF0.22535211267605634
aF1.0
aF0.3333333333333333
aF1.0
aF0.8333333333333334
aF1.0
aF0.6
aF0.25
aF0.3333333333333333
aF0.6
aF0.25
aF0.42857142857142855
aF0.3684210526315789
aF0.29333333333333333
aF0.5384615384615384
aF0.2564102564102564
aF0.375
aF0.4186046511627907
aF0.6923076923076923
aF1.0
aF0.38095238095238093
aF1.0
aF1.0
aF0.9090909090909091
aF0.0
aF0.2619047619047619
aF0.5
aF1.0
aF0.2692307692307692
aF1.0
aF0.5
aF0.5
aF0.0
aF1.0
aF1.0
aF0.3333333333333333
aF0.4782608695652174
aF1.0
aF0.0
aF0.0
aF0.4444444444444444
aF1.0
aF1.0
aF1.0
aF0.16666666666666666
aF0.8095238095238095
aF0.5
aF1.0
aF0.5
aF0.5
aF0.26136363636363635
aF0.5
aF0.36585365853658536
aF0.7142857142857143
aF0.0
aF0.0
aF0.44
aF1.0
aF1.0
aF0.6666666666666666
aF0.3111111111111111
aF0.75
aF1.0
aF0.2
aF0.42105263157894735
aF0.3888888888888889
aF0.5882352941176471
aF0.3333333333333333
aF0.26666666666666666
aF0.375
aF0.9166666666666666
aF0.2413793103448276
aF0.5454545454545454
aF0.31343283582089554
aF0.7142857142857143
aF0.3888888888888889
aF0.3548387096774194
aF0.29545454545454547
aF0.75
aF1.0
aF0.3157894736842105
aF0.2909090909090909
aF0.18699186991869918
aF0.47619047619047616
aF0.6666666666666666
aF1.0
aF0.625
aF0.3333333333333333
aF0.0
aF0.2523364485981308
aF0.7272727272727273
aF0.35
aF0.5384615384615384
aF0.8
aF0.6666666666666666
aF0.11152416356877323
aF0.2265625
aF0.0
aF0.0
aF0.41379310344827586
aF0.2457627118644068
aF0.28846153846153844
aF1.0
aF0.0
aF0.3333333333333333
aF0.23255813953488372
aF0.4
aF0.7272727272727273
aF0.16129032258064516
aF0.6666666666666666
aF0.3333333333333333
aF0.5833333333333334
aF1.0
aF0.0
aF0.2696629213483146
aF1.0
aF0.6
aF0.25
aF1.0
aF1.0
aF1.0
aF0.6666666666666666
aF0.47368421052631576
aF0.7777777777777778
aF0.3333333333333333
aF0.42857142857142855
aF0.4090909090909091
aF0.3157894736842105
aF1.0
aF0.8666666666666667
aF0.3
aF0.2631578947368421
aF0.4117647058823529
aF0.17647058823529413
aF0.43636363636363634
aF0.18421052631578946
aF1.0
aF1.0
aF0.3333333333333333
aF0.3815789473684211
aF0.35135135135135137
aF1.0
aF0.5
aF0.5283018867924528
aF1.0
aF1.0
aF1.0
aF0.0
aF0.6829268292682927
aF0.2857142857142857
aF0.2926829268292683
aF0.3333333333333333
aF0.625
aF0.28
aF0.6666666666666666
aF0.23529411764705882
aF0.14285714285714285
aF1.0
aF0.7777777777777778
aF0.391304347826087
aF1.0
aF0.6666666666666666
aF0.37209302325581395
aF0.7241379310344828
aF0.6
aF0.25274725274725274
aF1.0
aF0.5172413793103449
aF0.34615384615384615
aF0.5714285714285714
aF0.19607843137254902
aF0.3076923076923077
aF0.3561643835616438
aF0.4
aF1.0
aF0.14285714285714285
aF0.35
aF0.4
aF0.3333333333333333
aF0.6666666666666666
aF0.5
aF0.26666666666666666
aF0.3125
aF1.0
aF0.3333333333333333
aF0.7142857142857143
aF0.3333333333333333
aF0.21666666666666667
aF0.0
aF0.75
aF0.5
aF0.3137254901960784
aF0.6285714285714286
aF1.0
aF0.35714285714285715
aF0.75
aF0.0
aF0.23275862068965517
aF0.410958904109589
aF1.0
aF0.2631578947368421
aF0.3157894736842105
aF0.2222222222222222
aF0.3333333333333333
aF0.75
aF0.0
aF0.36
aF0.35714285714285715
aF0.5
aF0.2463768115942029
aF0.11494252873563218
aF1.0
aF0.9333333333333333
aF0.75
aF1.0
aF0.5319148936170213
aF0.6
aF1.0
aF0.76
aF0.23809523809523808
aF0.4722222222222222
aF0.0
aF0.5
aF0.0
aF0.38461538461538464
a.